
EGR 326 - Final Project.elf:     file format elf32-avr

Sections:
Idx Name          Size      VMA       LMA       File off  Algn
  0 .data         00000098  00800100  00001b86  00001c3a  2**0
                  CONTENTS, ALLOC, LOAD, DATA
  1 .text         00001b86  00000000  00000000  000000b4  2**1
                  CONTENTS, ALLOC, LOAD, READONLY, CODE
  2 .bss          0000003f  00800198  00800198  00001cd2  2**0
                  ALLOC
  3 .eeprom       00000008  00810000  00810000  00001cd2  2**0
                  CONTENTS, ALLOC, LOAD, DATA
  4 .comment      00000030  00000000  00000000  00001cda  2**0
                  CONTENTS, READONLY
  5 .debug_aranges 00000230  00000000  00000000  00001d0a  2**0
                  CONTENTS, READONLY, DEBUGGING
  6 .debug_info   00002d9a  00000000  00000000  00001f3a  2**0
                  CONTENTS, READONLY, DEBUGGING
  7 .debug_abbrev 0000077c  00000000  00000000  00004cd4  2**0
                  CONTENTS, READONLY, DEBUGGING
  8 .debug_line   00000c5e  00000000  00000000  00005450  2**0
                  CONTENTS, READONLY, DEBUGGING
  9 .debug_frame  000006e0  00000000  00000000  000060b0  2**2
                  CONTENTS, READONLY, DEBUGGING
 10 .debug_str    00000849  00000000  00000000  00006790  2**0
                  CONTENTS, READONLY, DEBUGGING
 11 .debug_loc    00001d91  00000000  00000000  00006fd9  2**0
                  CONTENTS, READONLY, DEBUGGING
 12 .debug_ranges 00000230  00000000  00000000  00008d6a  2**0
                  CONTENTS, READONLY, DEBUGGING

Disassembly of section .text:

00000000 <__vectors>:
       0:	0c 94 a6 01 	jmp	0x34c	; 0x34c <__ctors_end>
       4:	0c 94 c3 01 	jmp	0x386	; 0x386 <__bad_interrupt>
       8:	0c 94 c3 01 	jmp	0x386	; 0x386 <__bad_interrupt>
       c:	0c 94 c3 01 	jmp	0x386	; 0x386 <__bad_interrupt>
      10:	0c 94 c3 01 	jmp	0x386	; 0x386 <__bad_interrupt>
      14:	0c 94 c3 01 	jmp	0x386	; 0x386 <__bad_interrupt>
      18:	0c 94 7e 07 	jmp	0xefc	; 0xefc <__vector_6>
      1c:	0c 94 c3 01 	jmp	0x386	; 0x386 <__bad_interrupt>
      20:	0c 94 c3 01 	jmp	0x386	; 0x386 <__bad_interrupt>
      24:	0c 94 c3 01 	jmp	0x386	; 0x386 <__bad_interrupt>
      28:	0c 94 c3 01 	jmp	0x386	; 0x386 <__bad_interrupt>
      2c:	0c 94 c3 01 	jmp	0x386	; 0x386 <__bad_interrupt>
      30:	0c 94 c3 01 	jmp	0x386	; 0x386 <__bad_interrupt>
      34:	0c 94 c3 01 	jmp	0x386	; 0x386 <__bad_interrupt>
      38:	0c 94 c0 06 	jmp	0xd80	; 0xd80 <__vector_14>
      3c:	0c 94 c3 01 	jmp	0x386	; 0x386 <__bad_interrupt>
      40:	0c 94 c3 01 	jmp	0x386	; 0x386 <__bad_interrupt>
      44:	0c 94 c3 01 	jmp	0x386	; 0x386 <__bad_interrupt>
      48:	0c 94 c3 01 	jmp	0x386	; 0x386 <__bad_interrupt>
      4c:	0c 94 c3 01 	jmp	0x386	; 0x386 <__bad_interrupt>
      50:	0c 94 c3 01 	jmp	0x386	; 0x386 <__bad_interrupt>
      54:	0c 94 8f 07 	jmp	0xf1e	; 0xf1e <__vector_21>
      58:	0c 94 c3 01 	jmp	0x386	; 0x386 <__bad_interrupt>
      5c:	0c 94 c3 01 	jmp	0x386	; 0x386 <__bad_interrupt>
      60:	0c 94 c3 01 	jmp	0x386	; 0x386 <__bad_interrupt>
      64:	0c 94 c3 01 	jmp	0x386	; 0x386 <__bad_interrupt>

00000068 <__trampolines_end>:
      68:	00 c0       	rjmp	.+0      	; 0x6a <__trampolines_end+0x2>
      6a:	c0 c0       	rjmp	.+384    	; 0x1ec <smallFont+0x6c>
      6c:	00 00       	nop
      6e:	39 39       	cpi	r19, 0x99	; 153
      70:	39 00       	.word	0x0039	; ????

00000072 <large_font>:
      72:	f0 fc fe 06 02 06 fe fc f0 00 07 1f 3f 30 20 30     ............?0 0
      82:	3f 1f 07 00 10 08 0c fc fe fe 00 00 00 00 20 20     ?.............  
      92:	20 3f 3f 3f 20 20 20 00 0c 0e 06 02 02 86 fe 7c      ???   ........|
      a2:	38 00 30 38 3c 36 33 31 30 30 38 00 0c 0e 86 82     8.08<631008.....
      b2:	82 c6 fe 7c 38 00 18 38 30 20 20 31 3f 1f 0e 00     ...|8..80  1?...
      c2:	00 c0 20 18 04 fe fe fe 00 00 03 02 02 02 22 3f     .. ..........."?
      d2:	3f 3f 22 03 00 fe 7e 46 46 c6 c6 87 00 00 18 38     ??"...~FF......8
      e2:	30 20 20 30 3f 1f 0f 00 c0 f0 f8 bc 4c c6 c2 82     0  0?.......L...
      f2:	00 00 0f 1f 3f 30 20 30 3f 1f 0f 00 0e 06 06 06     ....?0 0?.......
     102:	06 c6 f6 3e 0e 00 00 00 30 3c 0f 03 00 00 00 00     ...>....0<......
     112:	38 7c fe c6 82 c6 fe 7c 38 00 0e 1f 3f 31 20 31     8|.....|8...?1 1
     122:	3f 1f 0e 00 78 fc fe 86 02 86 fe fc f8 00 00 00     ?...x...........
     132:	21 21 31 1c 1f 0f 03 00 00 00 00 00 00 00 00 00     !!1.............
	...

0000014e <single_numbers>:
     14e:	3e 41 41 41 3e 00 42 7f 40 00 42 61 51 49 46 21     >AAA>.B.@.BaQIF!
     15e:	41 45 4b 31 18 14 12 7f 10 27 45 45 45 39 3c 4a     AEK1.....'EEE9<J
     16e:	49 49 30 01 71 09 05 03 36 49 49 49 36 06 49 49     II0.q...6III6.II
     17e:	29 1e                                               ).

00000180 <smallFont>:
     180:	00 00 00 00 00 00 00 2f 00 00 00 07 00 07 00 14     ......./........
     190:	7f 14 7f 14 24 2a 7f 2a 12 c4 c8 10 26 46 36 49     ....$*.*....&F6I
     1a0:	55 22 50 00 05 03 00 00 00 1c 22 41 00 00 41 22     U"P......."A..A"
     1b0:	1c 00 14 08 3e 08 14 08 08 3e 08 08 00 00 50 30     ....>....>....P0
     1c0:	00 10 10 10 10 10 00 60 60 00 00 20 10 08 04 02     .......``.. ....
     1d0:	3e 41 41 41 3e 00 42 7f 40 00 42 61 51 49 46 21     >AAA>.B.@.BaQIF!
     1e0:	41 45 4b 31 18 14 12 7f 10 27 45 45 45 39 3c 4a     AEK1.....'EEE9<J
     1f0:	49 49 30 01 71 09 05 03 36 49 49 49 36 06 49 49     II0.q...6III6.II
     200:	29 1e 00 36 36 00 00 00 56 36 00 00 08 14 22 41     )..66...V6...."A
     210:	00 14 14 14 14 14 00 41 22 14 08 02 01 51 09 06     .......A"....Q..
     220:	32 49 59 51 3e 7e 11 11 11 7e 7f 49 49 49 36 3e     2IYQ>~...~.III6>
     230:	41 41 41 22 7f 41 41 22 1c 7f 49 49 49 41 7f 09     AAA".AA"..IIIA..
     240:	09 09 01 3e 41 49 49 7a 7f 08 08 08 7f 00 41 7f     ...>AIIz......A.
     250:	41 00 20 40 41 3f 01 7f 08 14 22 41 7f 40 40 40     A. @A?...."A.@@@
     260:	40 7f 02 0c 02 7f 7f 04 08 10 7f 3e 41 41 41 3e     @..........>AAA>
     270:	7f 09 09 09 06 3e 41 51 21 5e 7f 09 19 29 46 46     .....>AQ!^...)FF
     280:	49 49 49 31 01 01 7f 01 01 3f 40 40 40 3f 1f 20     III1.....?@@@?. 
     290:	40 20 1f 3f 40 38 40 3f 63 14 08 14 63 07 08 70     @ .?@8@?c...c..p
     2a0:	08 07 61 51 49 45 43 00 7f 41 41 00 55 2a 55 2a     ..aQIEC..AA.U*U*
     2b0:	55 00 41 41 7f 00 04 02 01 02 04 40 40 40 40 40     U.AA.......@@@@@
     2c0:	00 01 02 04 00 20 54 54 54 78 7f 48 44 44 38 38     ..... TTTx.HDD88
     2d0:	44 44 44 20 38 44 44 48 7f 38 54 54 54 18 08 7e     DDD 8DDH.8TTT..~
     2e0:	09 01 02 0c 52 52 52 3e 7f 08 04 04 78 00 44 7d     ....RRR>....x.D}
     2f0:	40 00 20 40 44 3d 00 7f 10 28 44 00 00 41 7f 40     @. @D=...(D..A.@
     300:	00 7c 04 18 04 78 7c 08 04 04 78 38 44 44 44 38     .|...x|...x8DDD8
     310:	7c 14 14 14 08 08 14 14 18 7c 7c 08 04 04 08 48     |........||....H
     320:	54 54 54 20 04 3f 44 40 20 3c 40 40 20 7c 1c 20     TTT .?D@ <@@ |. 
     330:	40 20 1c 3c 40 30 40 3c 44 28 10 28 44 0c 50 50     @ .<@0@<D(.(D.PP
     340:	50 3c 44 64 54 4c 44 00 06 09 09 06                 P<DdTLD.....

0000034c <__ctors_end>:
     34c:	11 24       	eor	r1, r1
     34e:	1f be       	out	0x3f, r1	; 63
     350:	cf ef       	ldi	r28, 0xFF	; 255
     352:	d8 e0       	ldi	r29, 0x08	; 8
     354:	de bf       	out	0x3e, r29	; 62
     356:	cd bf       	out	0x3d, r28	; 61

00000358 <__do_copy_data>:
     358:	11 e0       	ldi	r17, 0x01	; 1
     35a:	a0 e0       	ldi	r26, 0x00	; 0
     35c:	b1 e0       	ldi	r27, 0x01	; 1
     35e:	e6 e8       	ldi	r30, 0x86	; 134
     360:	fb e1       	ldi	r31, 0x1B	; 27
     362:	02 c0       	rjmp	.+4      	; 0x368 <__do_copy_data+0x10>
     364:	05 90       	lpm	r0, Z+
     366:	0d 92       	st	X+, r0
     368:	a8 39       	cpi	r26, 0x98	; 152
     36a:	b1 07       	cpc	r27, r17
     36c:	d9 f7       	brne	.-10     	; 0x364 <__do_copy_data+0xc>

0000036e <__do_clear_bss>:
     36e:	21 e0       	ldi	r18, 0x01	; 1
     370:	a8 e9       	ldi	r26, 0x98	; 152
     372:	b1 e0       	ldi	r27, 0x01	; 1
     374:	01 c0       	rjmp	.+2      	; 0x378 <.do_clear_bss_start>

00000376 <.do_clear_bss_loop>:
     376:	1d 92       	st	X+, r1

00000378 <.do_clear_bss_start>:
     378:	a7 3d       	cpi	r26, 0xD7	; 215
     37a:	b2 07       	cpc	r27, r18
     37c:	e1 f7       	brne	.-8      	; 0x376 <.do_clear_bss_loop>
     37e:	0e 94 38 02 	call	0x470	; 0x470 <main>
     382:	0c 94 c1 0d 	jmp	0x1b82	; 0x1b82 <_exit>

00000386 <__bad_interrupt>:
     386:	0c 94 00 00 	jmp	0	; 0x0 <__vectors>

0000038a <BUTTON_init>:

void BUTTON_init()
{
	//Note: Still need to add switches and LEDs
// Setting data direction for buttons and switches as inputs (already set to zero)
BUTTON_DD_1 &= ~_BV(BUTTON_1);
     38a:	50 98       	cbi	0x0a, 0	; 10
BUTTON_DD_2 &= ~_BV(BUTTON_2);
     38c:	51 98       	cbi	0x0a, 1	; 10
BUTTON_DD_3 &= ~_BV(BUTTON_3);
     38e:	55 98       	cbi	0x0a, 5	; 10
SWITCH_DD_1 &= ~_BV(SWITCH_1);
     390:	56 98       	cbi	0x0a, 6	; 10
SWITCH_DD_2 &= ~_BV(SWITCH_2);
     392:	57 98       	cbi	0x0a, 7	; 10

// Enabling internal pull-up resistor on pins attached to buttons and switches
BUTTONS_PORT |= _BV(BUTTON_1);     
     394:	58 9a       	sbi	0x0b, 0	; 11
BUTTONS_PORT |= _BV(BUTTON_2);
     396:	59 9a       	sbi	0x0b, 1	; 11
BUTTONS_PORT |= _BV(BUTTON_3);
     398:	5d 9a       	sbi	0x0b, 5	; 11
BUTTONS_PORT |= _BV(SWITCH_1);
     39a:	5e 9a       	sbi	0x0b, 6	; 11
BUTTONS_PORT |= _BV(SWITCH_2);
     39c:	5f 9a       	sbi	0x0b, 7	; 11

//Setting data directions for LEDs
DDRC |= _BV(LED_RADIO);
     39e:	3b 9a       	sbi	0x07, 3	; 7
DDRC |= _BV(LED_STEREO);
     3a0:	3e 9a       	sbi	0x07, 6	; 7

//Turn LEDs off initially
LED_RADIO_OFF;
     3a2:	43 9a       	sbi	0x08, 3	; 8
LED_STEREO_OFF;
     3a4:	46 9a       	sbi	0x08, 6	; 8
     3a6:	08 95       	ret

000003a8 <eeprom_GetAlarm>:
Return value : None.
--------------------------------------------------------------------------------------------------*/

void eeprom_GetAlarm(void){
	// Read alarm time from EEPROM
	alarmtime1.hour = (uint8_t)eeprom_read_byte(&alarm_hour1);
     3a8:	87 e0       	ldi	r24, 0x07	; 7
     3aa:	90 e0       	ldi	r25, 0x00	; 0
     3ac:	0e 94 a7 0d 	call	0x1b4e	; 0x1b4e <__eerd_byte_m328p>
     3b0:	80 93 b3 01 	sts	0x01B3, r24
	alarmtime1.minute = (uint8_t)eeprom_read_byte(&alarm_minute1);
     3b4:	86 e0       	ldi	r24, 0x06	; 6
     3b6:	90 e0       	ldi	r25, 0x00	; 0
     3b8:	0e 94 a7 0d 	call	0x1b4e	; 0x1b4e <__eerd_byte_m328p>
     3bc:	80 93 b4 01 	sts	0x01B4, r24
	alarmtime1.AM_PM = (uint8_t)eeprom_read_byte(&alarm_AM_PM1);
     3c0:	85 e0       	ldi	r24, 0x05	; 5
     3c2:	90 e0       	ldi	r25, 0x00	; 0
     3c4:	0e 94 a7 0d 	call	0x1b4e	; 0x1b4e <__eerd_byte_m328p>
     3c8:	80 93 b5 01 	sts	0x01B5, r24
	alarmtime1.on_off = (uint8_t)eeprom_read_byte(&alarm_onoff1);
     3cc:	84 e0       	ldi	r24, 0x04	; 4
     3ce:	90 e0       	ldi	r25, 0x00	; 0
     3d0:	0e 94 a7 0d 	call	0x1b4e	; 0x1b4e <__eerd_byte_m328p>
     3d4:	80 93 b6 01 	sts	0x01B6, r24
	alarmtime2.hour = (uint8_t)eeprom_read_byte(&alarm_hour2);
     3d8:	83 e0       	ldi	r24, 0x03	; 3
     3da:	90 e0       	ldi	r25, 0x00	; 0
     3dc:	0e 94 a7 0d 	call	0x1b4e	; 0x1b4e <__eerd_byte_m328p>
     3e0:	80 93 cf 01 	sts	0x01CF, r24
	alarmtime2.minute = (uint8_t)eeprom_read_byte(&alarm_minute2);
     3e4:	82 e0       	ldi	r24, 0x02	; 2
     3e6:	90 e0       	ldi	r25, 0x00	; 0
     3e8:	0e 94 a7 0d 	call	0x1b4e	; 0x1b4e <__eerd_byte_m328p>
     3ec:	80 93 d0 01 	sts	0x01D0, r24
	alarmtime2.AM_PM = (uint8_t)eeprom_read_byte(&alarm_AM_PM2);
     3f0:	81 e0       	ldi	r24, 0x01	; 1
     3f2:	90 e0       	ldi	r25, 0x00	; 0
     3f4:	0e 94 a7 0d 	call	0x1b4e	; 0x1b4e <__eerd_byte_m328p>
     3f8:	80 93 d1 01 	sts	0x01D1, r24
	alarmtime2.on_off = (uint8_t)eeprom_read_byte(&alarm_onoff2);
     3fc:	80 e0       	ldi	r24, 0x00	; 0
     3fe:	90 e0       	ldi	r25, 0x00	; 0
     400:	0e 94 a7 0d 	call	0x1b4e	; 0x1b4e <__eerd_byte_m328p>
     404:	80 93 d2 01 	sts	0x01D2, r24
     408:	08 95       	ret

0000040a <eeprom_SetAlarm>:
Return value : None.
--------------------------------------------------------------------------------------------------*/

void eeprom_SetAlarm(void){
	//store alarm time
	eeprom_update_byte(&alarm_hour1, alarmtime1.hour);
     40a:	60 91 b3 01 	lds	r22, 0x01B3
     40e:	87 e0       	ldi	r24, 0x07	; 7
     410:	90 e0       	ldi	r25, 0x00	; 0
     412:	0e 94 af 0d 	call	0x1b5e	; 0x1b5e <__eeupd_byte_m328p>
	eeprom_update_byte(&alarm_minute1, alarmtime1.minute);
     416:	60 91 b4 01 	lds	r22, 0x01B4
     41a:	86 e0       	ldi	r24, 0x06	; 6
     41c:	90 e0       	ldi	r25, 0x00	; 0
     41e:	0e 94 af 0d 	call	0x1b5e	; 0x1b5e <__eeupd_byte_m328p>
	eeprom_update_byte(&alarm_AM_PM1, alarmtime1.AM_PM);
     422:	60 91 b5 01 	lds	r22, 0x01B5
     426:	85 e0       	ldi	r24, 0x05	; 5
     428:	90 e0       	ldi	r25, 0x00	; 0
     42a:	0e 94 af 0d 	call	0x1b5e	; 0x1b5e <__eeupd_byte_m328p>
	eeprom_update_byte(&alarm_hour2, alarmtime2.hour);
     42e:	60 91 cf 01 	lds	r22, 0x01CF
     432:	83 e0       	ldi	r24, 0x03	; 3
     434:	90 e0       	ldi	r25, 0x00	; 0
     436:	0e 94 af 0d 	call	0x1b5e	; 0x1b5e <__eeupd_byte_m328p>
	eeprom_update_byte(&alarm_minute2, alarmtime2.minute);
     43a:	60 91 d0 01 	lds	r22, 0x01D0
     43e:	82 e0       	ldi	r24, 0x02	; 2
     440:	90 e0       	ldi	r25, 0x00	; 0
     442:	0e 94 af 0d 	call	0x1b5e	; 0x1b5e <__eeupd_byte_m328p>
	eeprom_update_byte(&alarm_AM_PM2, alarmtime2.AM_PM);
     446:	60 91 d1 01 	lds	r22, 0x01D1
     44a:	81 e0       	ldi	r24, 0x01	; 1
     44c:	90 e0       	ldi	r25, 0x00	; 0
     44e:	0e 94 af 0d 	call	0x1b5e	; 0x1b5e <__eeupd_byte_m328p>
     452:	08 95       	ret

00000454 <WDT_Init>:

void WDT_Init(void)
{
	
	//reset watchdog
	wdt_disable();
     454:	88 e1       	ldi	r24, 0x18	; 24
     456:	0f b6       	in	r0, 0x3f	; 63
     458:	f8 94       	cli
     45a:	80 93 60 00 	sts	0x0060, r24
     45e:	10 92 60 00 	sts	0x0060, r1
     462:	0f be       	out	0x3f, r0	; 63
	//set up WDT interrupt
	WDTCSR = (1<<WDCE)|(1<<WDE);
     464:	e0 e6       	ldi	r30, 0x60	; 96
     466:	f0 e0       	ldi	r31, 0x00	; 0
     468:	80 83       	st	Z, r24
	//Start watchdog timer with 4s prescaller
	WDTCSR = (1<<WDIE)|(1<<WDP3);
     46a:	80 e6       	ldi	r24, 0x60	; 96
     46c:	80 83       	st	Z, r24
     46e:	08 95       	ret

00000470 <main>:
--------------------------------------------------------------------------------------------------*/

int main(void)
{
	//initialize peripherals, timers and buttons/switches
	cli();
     470:	f8 94       	cli
	Timer0_Init();
     472:	0e 94 cf 0c 	call	0x199e	; 0x199e <Timer0_Init>
	Timer1_Init();
     476:	0e 94 e3 0c 	call	0x19c6	; 0x19c6 <Timer1_Init>
	Timer2_Init();
     47a:	0e 94 da 0c 	call	0x19b4	; 0x19b4 <Timer2_Init>
	WDT_Init();
     47e:	0e 94 2a 02 	call	0x454	; 0x454 <WDT_Init>
	//I2C_Init();
	i2c_init();
     482:	0e 94 1e 0d 	call	0x1a3c	; 0x1a3c <i2c_init>
	BUTTON_init();
     486:	0e 94 c5 01 	call	0x38a	; 0x38a <BUTTON_init>
	LCD_SPI_initialize();
     48a:	0e 94 99 07 	call	0xf32	; 0xf32 <LCD_SPI_initialize>
	LCD_initialize();
     48e:	0e 94 d2 07 	call	0xfa4	; 0xfa4 <LCD_initialize>
	//FM_Init(); Yet to be implemented
	//ADC_Init(); Yet to be implemented
	sei();
     492:	78 94       	sei
	
	//Set time if needed
	timeset.hour = 8;
     494:	88 e0       	ldi	r24, 0x08	; 8
     496:	68 2f       	mov	r22, r24
     498:	80 93 a7 01 	sts	0x01A7, r24
	timeset.minute = 57;
     49c:	89 e3       	ldi	r24, 0x39	; 57
     49e:	78 2f       	mov	r23, r24
     4a0:	80 93 a8 01 	sts	0x01A8, r24
	timeset.second = 0;
     4a4:	10 92 a9 01 	sts	0x01A9, r1
	timeset.AM_PM = 1;
     4a8:	c1 e0       	ldi	r28, 0x01	; 1
     4aa:	c0 93 aa 01 	sts	0x01AA, r28
	timeset.day = 11;
     4ae:	8b e0       	ldi	r24, 0x0B	; 11
     4b0:	48 2f       	mov	r20, r24
     4b2:	80 93 a5 01 	sts	0x01A5, r24
	timeset.day_of_week = 3;
     4b6:	93 e0       	ldi	r25, 0x03	; 3
     4b8:	59 2f       	mov	r21, r25
     4ba:	90 93 a6 01 	sts	0x01A6, r25
	timeset.month = 11;
     4be:	38 2f       	mov	r19, r24
     4c0:	80 93 a4 01 	sts	0x01A4, r24
	timeset.year = 14;
     4c4:	8e e0       	ldi	r24, 0x0E	; 14
     4c6:	28 2f       	mov	r18, r24
     4c8:	80 93 a3 01 	sts	0x01A3, r24

	RTC_Set(timeset);
     4cc:	80 e0       	ldi	r24, 0x00	; 0
     4ce:	9c 2f       	mov	r25, r28
     4d0:	0e 94 3e 0c 	call	0x187c	; 0x187c <RTC_Set>
	
	
	
	// Read alarm time from EEPROM
	eeprom_GetAlarm();
     4d4:	0e 94 d4 01 	call	0x3a8	; 0x3a8 <eeprom_GetAlarm>
	//Clear out random stuff when re-programming
	alarmtime1.on_off &= 0x01;
     4d8:	e6 eb       	ldi	r30, 0xB6	; 182
     4da:	f1 e0       	ldi	r31, 0x01	; 1
     4dc:	80 81       	ld	r24, Z
     4de:	81 70       	andi	r24, 0x01	; 1
     4e0:	80 83       	st	Z, r24
	alarmtime2.on_off &= 0x01;
     4e2:	e2 ed       	ldi	r30, 0xD2	; 210
     4e4:	f1 e0       	ldi	r31, 0x01	; 1
     4e6:	20 81       	ld	r18, Z
     4e8:	21 70       	andi	r18, 0x01	; 1
     4ea:	20 83       	st	Z, r18
	alarmtime1.alarm_number = 1;
     4ec:	c0 93 b7 01 	sts	0x01B7, r28
	alarmtime2.alarm_number = 2;
     4f0:	92 e0       	ldi	r25, 0x02	; 2
     4f2:	90 93 d3 01 	sts	0x01D3, r25
	//alarmtime1.music_bell;
	
	//Set alarm string to proper value, should be replaced by cute symbol
	if(alarmtime1.on_off){
     4f6:	88 23       	and	r24, r24
     4f8:	69 f0       	breq	.+26     	; 0x514 <main+0xa4>
		strcpy(string_alarm_onoff1,on);
     4fa:	8f e4       	ldi	r24, 0x4F	; 79
     4fc:	9e e4       	ldi	r25, 0x4E	; 78
     4fe:	a0 e2       	ldi	r26, 0x20	; 32
     500:	b0 e0       	ldi	r27, 0x00	; 0
     502:	80 93 c5 01 	sts	0x01C5, r24
     506:	90 93 c6 01 	sts	0x01C6, r25
     50a:	a0 93 c7 01 	sts	0x01C7, r26
     50e:	b0 93 c8 01 	sts	0x01C8, r27
     512:	0c c0       	rjmp	.+24     	; 0x52c <main+0xbc>
	}
	else
	{
		strcpy(string_alarm_onoff1,off);
     514:	8f e4       	ldi	r24, 0x4F	; 79
     516:	96 e4       	ldi	r25, 0x46	; 70
     518:	a6 e4       	ldi	r26, 0x46	; 70
     51a:	b0 e0       	ldi	r27, 0x00	; 0
     51c:	80 93 c5 01 	sts	0x01C5, r24
     520:	90 93 c6 01 	sts	0x01C6, r25
     524:	a0 93 c7 01 	sts	0x01C7, r26
     528:	b0 93 c8 01 	sts	0x01C8, r27
	}
	if(alarmtime2.on_off){
     52c:	22 23       	and	r18, r18
     52e:	69 f0       	breq	.+26     	; 0x54a <main+0xda>
		strcpy(string_alarm_onoff2,on);
     530:	8f e4       	ldi	r24, 0x4F	; 79
     532:	9e e4       	ldi	r25, 0x4E	; 78
     534:	a0 e2       	ldi	r26, 0x20	; 32
     536:	b0 e0       	ldi	r27, 0x00	; 0
     538:	80 93 bb 01 	sts	0x01BB, r24
     53c:	90 93 bc 01 	sts	0x01BC, r25
     540:	a0 93 bd 01 	sts	0x01BD, r26
     544:	b0 93 be 01 	sts	0x01BE, r27
     548:	0c c0       	rjmp	.+24     	; 0x562 <main+0xf2>
	}
	else
	{
		strcpy(string_alarm_onoff2,off);
     54a:	8f e4       	ldi	r24, 0x4F	; 79
     54c:	96 e4       	ldi	r25, 0x46	; 70
     54e:	a6 e4       	ldi	r26, 0x46	; 70
     550:	b0 e0       	ldi	r27, 0x00	; 0
     552:	80 93 bb 01 	sts	0x01BB, r24
     556:	90 93 bc 01 	sts	0x01BC, r25
     55a:	a0 93 bd 01 	sts	0x01BD, r26
     55e:	b0 93 be 01 	sts	0x01BE, r27
		Timer1PWM_OnOff(PWM_OFF);
		CLEAR_BUTTONS;
		//WDT_RESET;
	}
	
	if((alarmtime2.hour == times.hour) && (alarmtime2.minute == times.minute) && (alarmtime2.AM_PM == times.AM_PM)
     562:	cf ec       	ldi	r28, 0xCF	; 207
     564:	d1 e0       	ldi	r29, 0x01	; 1
     566:	0f 2e       	mov	r0, r31
     568:	f0 ed       	ldi	r31, 0xD0	; 208
     56a:	6f 2e       	mov	r6, r31
     56c:	f1 e0       	ldi	r31, 0x01	; 1
     56e:	7f 2e       	mov	r7, r31
     570:	f0 2d       	mov	r31, r0
     572:	0f 2e       	mov	r0, r31
     574:	f1 ed       	ldi	r31, 0xD1	; 209
     576:	4f 2e       	mov	r4, r31
     578:	f1 e0       	ldi	r31, 0x01	; 1
     57a:	5f 2e       	mov	r5, r31
     57c:	f0 2d       	mov	r31, r0
Return value : None.
--------------------------------------------------------------------------------------------------*/

inline void check_alarms(void){
	//check if alarm 1 has gone off
	if((alarmtime1.hour == times.hour) && (alarmtime1.minute == times.minute) && (alarmtime1.AM_PM == times.AM_PM)
     57e:	0f 2e       	mov	r0, r31
     580:	f5 eb       	ldi	r31, 0xB5	; 181
     582:	2f 2e       	mov	r2, r31
     584:	f1 e0       	ldi	r31, 0x01	; 1
     586:	3f 2e       	mov	r3, r31
     588:	f0 2d       	mov	r31, r0
	
	while(1)
	{
		//Main switch for turning on radio, toggling presets, entering
		// the menu, and toggling alarms on and off
		switch (g_button_pressed){
     58a:	80 91 a2 01 	lds	r24, 0x01A2
     58e:	83 30       	cpi	r24, 0x03	; 3
     590:	09 f4       	brne	.+2      	; 0x594 <main+0x124>
     592:	c6 c2       	rjmp	.+1420   	; 0xb20 <__stack+0x221>
     594:	28 f4       	brcc	.+10     	; 0x5a0 <main+0x130>
     596:	81 30       	cpi	r24, 0x01	; 1
     598:	61 f0       	breq	.+24     	; 0x5b2 <main+0x142>
     59a:	82 30       	cpi	r24, 0x02	; 2
     59c:	69 f0       	breq	.+26     	; 0x5b8 <main+0x148>
     59e:	1c c3       	rjmp	.+1592   	; 0xbd8 <__stack+0x2d9>
     5a0:	85 30       	cpi	r24, 0x05	; 5
     5a2:	09 f4       	brne	.+2      	; 0x5a6 <main+0x136>
     5a4:	eb c2       	rjmp	.+1494   	; 0xb7c <__stack+0x27d>
     5a6:	08 f4       	brcc	.+2      	; 0x5aa <main+0x13a>
     5a8:	e6 c2       	rjmp	.+1484   	; 0xb76 <__stack+0x277>
     5aa:	86 30       	cpi	r24, 0x06	; 6
     5ac:	09 f4       	brne	.+2      	; 0x5b0 <main+0x140>
     5ae:	e9 c2       	rjmp	.+1490   	; 0xb82 <__stack+0x283>
     5b0:	13 c3       	rjmp	.+1574   	; 0xbd8 <__stack+0x2d9>
			//button one pressed
			case (B1):
				CLEAR_BUTTONS;
     5b2:	10 92 a2 01 	sts	0x01A2, r1
				//toggle presets
				break;
     5b6:	e9 cf       	rjmp	.-46     	; 0x58a <main+0x11a>
			//button 2 pressed, enter menu
			case (B2):
				CLEAR_BUTTONS;
     5b8:	10 92 a2 01 	sts	0x01A2, r1
				//Set menu loop variable
				menufresh = 1;
     5bc:	81 e0       	ldi	r24, 0x01	; 1
     5be:	80 93 9f 01 	sts	0x019F, r24
				//Set the select to first element in the menu
				menu_current = 0;
     5c2:	10 92 9e 01 	sts	0x019E, r1
     5c6:	10 92 9d 01 	sts	0x019D, r1
				LCD_clear_screen();
     5ca:	0e 94 bf 07 	call	0xf7e	; 0xf7e <LCD_clear_screen>
				//Loop for main menu while the WDT hasn't timed out and 
				// the user hasn't selected back
				while(menufresh && (WDT_counter < WDT_TIMEOUT))
				{
					//print menu with current selection inverted
					LCD_print_menu(menu_current);
     5ce:	0f 2e       	mov	r0, r31
     5d0:	fd e9       	ldi	r31, 0x9D	; 157
     5d2:	ef 2e       	mov	r14, r31
     5d4:	f1 e0       	ldi	r31, 0x01	; 1
     5d6:	ff 2e       	mov	r15, r31
     5d8:	f0 2d       	mov	r31, r0
	while((g_button_pressed != B2) && (WDT_counter < WDT_TIMEOUT))
	{
		switch(g_button_pressed){
			case(B1):
			//WDT_RESET;
			if(alarmtime->minute <= 0){
     5da:	0f 2e       	mov	r0, r31
     5dc:	f4 eb       	ldi	r31, 0xB4	; 180
     5de:	af 2e       	mov	r10, r31
     5e0:	f1 e0       	ldi	r31, 0x01	; 1
     5e2:	bf 2e       	mov	r11, r31
     5e4:	f0 2d       	mov	r31, r0
	while((g_button_pressed != B2) && (WDT_counter < WDT_TIMEOUT))
	{
		switch(g_button_pressed){
			case(B1):
			//WDT_RESET;
			if(alarmtime->hour <= 0){
     5e6:	0f 2e       	mov	r0, r31
     5e8:	f3 eb       	ldi	r31, 0xB3	; 179
     5ea:	cf 2e       	mov	r12, r31
     5ec:	f1 e0       	ldi	r31, 0x01	; 1
     5ee:	df 2e       	mov	r13, r31
     5f0:	f0 2d       	mov	r31, r0
				//Set the select to first element in the menu
				menu_current = 0;
				LCD_clear_screen();
				//Loop for main menu while the WDT hasn't timed out and 
				// the user hasn't selected back
				while(menufresh && (WDT_counter < WDT_TIMEOUT))
     5f2:	8b c2       	rjmp	.+1302   	; 0xb0a <__stack+0x20b>
				{
					//print menu with current selection inverted
					LCD_print_menu(menu_current);
     5f4:	d7 01       	movw	r26, r14
     5f6:	8c 91       	ld	r24, X
     5f8:	0e 94 c8 0b 	call	0x1790	; 0x1790 <LCD_print_menu>
					switch(g_button_pressed){
     5fc:	80 91 a2 01 	lds	r24, 0x01A2
     600:	82 30       	cpi	r24, 0x02	; 2
     602:	91 f0       	breq	.+36     	; 0x628 <main+0x1b8>
     604:	83 30       	cpi	r24, 0x03	; 3
     606:	09 f4       	brne	.+2      	; 0x60a <main+0x19a>
     608:	61 c2       	rjmp	.+1218   	; 0xacc <__stack+0x1cd>
     60a:	81 30       	cpi	r24, 0x01	; 1
     60c:	09 f0       	breq	.+2      	; 0x610 <main+0x1a0>
     60e:	69 c2       	rjmp	.+1234   	; 0xae2 <__stack+0x1e3>
						//move one selection up in menu
						case (B1):
							CLEAR_BUTTONS;
     610:	10 92 a2 01 	sts	0x01A2, r1
							menu_current = menu_current-1;
     614:	80 91 9d 01 	lds	r24, 0x019D
     618:	90 91 9e 01 	lds	r25, 0x019E
     61c:	01 97       	sbiw	r24, 0x01	; 1
     61e:	90 93 9e 01 	sts	0x019E, r25
     622:	80 93 9d 01 	sts	0x019D, r24
							break;
     626:	5d c2       	rjmp	.+1210   	; 0xae2 <__stack+0x1e3>
						//enter state for current menu selection
						case (B2):
							CLEAR_BUTTONS;
     628:	10 92 a2 01 	sts	0x01A2, r1
							switch(menu_current)
     62c:	80 91 9d 01 	lds	r24, 0x019D
     630:	90 91 9e 01 	lds	r25, 0x019E
     634:	84 30       	cpi	r24, 0x04	; 4
     636:	91 05       	cpc	r25, r1
     638:	09 f4       	brne	.+2      	; 0x63c <main+0x1cc>
     63a:	26 c1       	rjmp	.+588    	; 0x888 <main+0x418>
     63c:	85 30       	cpi	r24, 0x05	; 5
     63e:	91 05       	cpc	r25, r1
     640:	09 f4       	brne	.+2      	; 0x644 <main+0x1d4>
     642:	3f c2       	rjmp	.+1150   	; 0xac2 <__stack+0x1c3>
     644:	03 97       	sbiw	r24, 0x03	; 3
     646:	09 f0       	breq	.+2      	; 0x64a <main+0x1da>
     648:	4c c2       	rjmp	.+1176   	; 0xae2 <__stack+0x1e3>
Argument(s) : None.
Return value : None.
--------------------------------------------------------------------------------------------------*/

inline void set_alarm(alarm_t *alarmtime){
	LCD_print_alarm_display(*alarmtime,HOURS);
     64a:	01 e0       	ldi	r16, 0x01	; 1
     64c:	20 91 b3 01 	lds	r18, 0x01B3
     650:	30 91 b4 01 	lds	r19, 0x01B4
     654:	40 91 b5 01 	lds	r20, 0x01B5
     658:	50 91 b6 01 	lds	r21, 0x01B6
     65c:	60 91 b7 01 	lds	r22, 0x01B7
     660:	70 91 b8 01 	lds	r23, 0x01B8
     664:	80 91 b9 01 	lds	r24, 0x01B9
     668:	90 91 ba 01 	lds	r25, 0x01BA
     66c:	0e 94 dd 0a 	call	0x15ba	; 0x15ba <LCD_print_alarm_display>
	CLEAR_BUTTONS;
     670:	10 92 a2 01 	sts	0x01A2, r1
	while((g_button_pressed != B2) && (WDT_counter < WDT_TIMEOUT))
     674:	80 91 9c 01 	lds	r24, 0x019C
     678:	8f 30       	cpi	r24, 0x0F	; 15
     67a:	08 f0       	brcs	.+2      	; 0x67e <main+0x20e>
     67c:	4e c0       	rjmp	.+156    	; 0x71a <main+0x2aa>
	{
		switch(g_button_pressed){
			case(B1):
			//WDT_RESET;
			if(alarmtime->hour <= 0){
				alarmtime->hour = 13;
     67e:	1d e0       	ldi	r17, 0x0D	; 13
     680:	3f c0       	rjmp	.+126    	; 0x700 <main+0x290>
inline void set_alarm(alarm_t *alarmtime){
	LCD_print_alarm_display(*alarmtime,HOURS);
	CLEAR_BUTTONS;
	while((g_button_pressed != B2) && (WDT_counter < WDT_TIMEOUT))
	{
		switch(g_button_pressed){
     682:	81 30       	cpi	r24, 0x01	; 1
     684:	19 f0       	breq	.+6      	; 0x68c <main+0x21c>
     686:	83 30       	cpi	r24, 0x03	; 3
     688:	f1 f0       	breq	.+60     	; 0x6c6 <main+0x256>
     68a:	3a c0       	rjmp	.+116    	; 0x700 <main+0x290>
			case(B1):
			//WDT_RESET;
			if(alarmtime->hour <= 0){
     68c:	f6 01       	movw	r30, r12
     68e:	80 81       	ld	r24, Z
     690:	81 11       	cpse	r24, r1
     692:	02 c0       	rjmp	.+4      	; 0x698 <main+0x228>
				alarmtime->hour = 13;
     694:	10 83       	st	Z, r17
     696:	34 c0       	rjmp	.+104    	; 0x700 <main+0x290>
				break;
			}
			alarmtime->hour = alarmtime->hour - 1;
     698:	81 50       	subi	r24, 0x01	; 1
     69a:	28 2f       	mov	r18, r24
     69c:	80 83       	st	Z, r24
			LCD_print_alarm_display(*alarmtime,HOURS);
     69e:	01 e0       	ldi	r16, 0x01	; 1
     6a0:	30 91 b4 01 	lds	r19, 0x01B4
     6a4:	40 91 b5 01 	lds	r20, 0x01B5
     6a8:	50 91 b6 01 	lds	r21, 0x01B6
     6ac:	60 91 b7 01 	lds	r22, 0x01B7
     6b0:	70 91 b8 01 	lds	r23, 0x01B8
     6b4:	80 91 b9 01 	lds	r24, 0x01B9
     6b8:	90 91 ba 01 	lds	r25, 0x01BA
     6bc:	0e 94 dd 0a 	call	0x15ba	; 0x15ba <LCD_print_alarm_display>
			CLEAR_BUTTONS;
     6c0:	10 92 a2 01 	sts	0x01A2, r1
     6c4:	1d c0       	rjmp	.+58     	; 0x700 <main+0x290>
			break;
			case(B3):
			//WDT_RESET;
			alarmtime->hour++;
     6c6:	f6 01       	movw	r30, r12
     6c8:	80 81       	ld	r24, Z
     6ca:	8f 5f       	subi	r24, 0xFF	; 255
			if(alarmtime->hour >= 13){
     6cc:	8d 30       	cpi	r24, 0x0D	; 13
     6ce:	10 f4       	brcc	.+4      	; 0x6d4 <main+0x264>
			LCD_print_alarm_display(*alarmtime,HOURS);
			CLEAR_BUTTONS;
			break;
			case(B3):
			//WDT_RESET;
			alarmtime->hour++;
     6d0:	80 83       	st	Z, r24
     6d2:	01 c0       	rjmp	.+2      	; 0x6d6 <main+0x266>
			if(alarmtime->hour >= 13){
				alarmtime->hour = 0;
     6d4:	10 82       	st	Z, r1
			}
			LCD_print_alarm_display(*alarmtime,HOURS);
     6d6:	01 e0       	ldi	r16, 0x01	; 1
     6d8:	20 91 b3 01 	lds	r18, 0x01B3
     6dc:	30 91 b4 01 	lds	r19, 0x01B4
     6e0:	40 91 b5 01 	lds	r20, 0x01B5
     6e4:	50 91 b6 01 	lds	r21, 0x01B6
     6e8:	60 91 b7 01 	lds	r22, 0x01B7
     6ec:	70 91 b8 01 	lds	r23, 0x01B8
     6f0:	80 91 b9 01 	lds	r24, 0x01B9
     6f4:	90 91 ba 01 	lds	r25, 0x01BA
     6f8:	0e 94 dd 0a 	call	0x15ba	; 0x15ba <LCD_print_alarm_display>
			CLEAR_BUTTONS;
     6fc:	10 92 a2 01 	sts	0x01A2, r1
			break;
		}
		hw_delay(5);
     700:	85 e0       	ldi	r24, 0x05	; 5
     702:	90 e0       	ldi	r25, 0x00	; 0
     704:	0e 94 f7 0c 	call	0x19ee	; 0x19ee <hw_delay>
--------------------------------------------------------------------------------------------------*/

inline void set_alarm(alarm_t *alarmtime){
	LCD_print_alarm_display(*alarmtime,HOURS);
	CLEAR_BUTTONS;
	while((g_button_pressed != B2) && (WDT_counter < WDT_TIMEOUT))
     708:	80 91 a2 01 	lds	r24, 0x01A2
     70c:	82 30       	cpi	r24, 0x02	; 2
     70e:	29 f0       	breq	.+10     	; 0x71a <main+0x2aa>
     710:	90 91 9c 01 	lds	r25, 0x019C
     714:	9f 30       	cpi	r25, 0x0F	; 15
     716:	08 f4       	brcc	.+2      	; 0x71a <main+0x2aa>
     718:	b4 cf       	rjmp	.-152    	; 0x682 <main+0x212>
			CLEAR_BUTTONS;
			break;
		}
		hw_delay(5);
	}
	CLEAR_BUTTONS;
     71a:	10 92 a2 01 	sts	0x01A2, r1
	LCD_print_alarm_display(*alarmtime,MINUTES);
     71e:	00 e0       	ldi	r16, 0x00	; 0
     720:	20 91 b3 01 	lds	r18, 0x01B3
     724:	30 91 b4 01 	lds	r19, 0x01B4
     728:	40 91 b5 01 	lds	r20, 0x01B5
     72c:	50 91 b6 01 	lds	r21, 0x01B6
     730:	60 91 b7 01 	lds	r22, 0x01B7
     734:	70 91 b8 01 	lds	r23, 0x01B8
     738:	80 91 b9 01 	lds	r24, 0x01B9
     73c:	90 91 ba 01 	lds	r25, 0x01BA
     740:	0e 94 dd 0a 	call	0x15ba	; 0x15ba <LCD_print_alarm_display>
	while((g_button_pressed != B2) && (WDT_counter < WDT_TIMEOUT))
     744:	80 91 a2 01 	lds	r24, 0x01A2
     748:	82 30       	cpi	r24, 0x02	; 2
     74a:	09 f4       	brne	.+2      	; 0x74e <main+0x2de>
     74c:	52 c0       	rjmp	.+164    	; 0x7f2 <main+0x382>
     74e:	90 91 9c 01 	lds	r25, 0x019C
     752:	9f 30       	cpi	r25, 0x0F	; 15
     754:	08 f0       	brcs	.+2      	; 0x758 <main+0x2e8>
     756:	4d c0       	rjmp	.+154    	; 0x7f2 <main+0x382>
	{
		switch(g_button_pressed){
			case(B1):
			//WDT_RESET;
			if(alarmtime->minute <= 0){
				alarmtime->minute = 60;
     758:	1c e3       	ldi	r17, 0x3C	; 60
	}
	CLEAR_BUTTONS;
	LCD_print_alarm_display(*alarmtime,MINUTES);
	while((g_button_pressed != B2) && (WDT_counter < WDT_TIMEOUT))
	{
		switch(g_button_pressed){
     75a:	81 30       	cpi	r24, 0x01	; 1
     75c:	19 f0       	breq	.+6      	; 0x764 <main+0x2f4>
     75e:	83 30       	cpi	r24, 0x03	; 3
     760:	f1 f0       	breq	.+60     	; 0x79e <main+0x32e>
     762:	3a c0       	rjmp	.+116    	; 0x7d8 <main+0x368>
			case(B1):
			//WDT_RESET;
			if(alarmtime->minute <= 0){
     764:	f5 01       	movw	r30, r10
     766:	80 81       	ld	r24, Z
     768:	81 11       	cpse	r24, r1
     76a:	02 c0       	rjmp	.+4      	; 0x770 <main+0x300>
				alarmtime->minute = 60;
     76c:	10 83       	st	Z, r17
     76e:	34 c0       	rjmp	.+104    	; 0x7d8 <main+0x368>
				break;
			}
			alarmtime->minute = alarmtime->minute - 1;
     770:	81 50       	subi	r24, 0x01	; 1
     772:	38 2f       	mov	r19, r24
     774:	80 83       	st	Z, r24
			LCD_print_alarm_display(*alarmtime,MINUTES);
     776:	00 e0       	ldi	r16, 0x00	; 0
     778:	20 91 b3 01 	lds	r18, 0x01B3
     77c:	40 91 b5 01 	lds	r20, 0x01B5
     780:	50 91 b6 01 	lds	r21, 0x01B6
     784:	60 91 b7 01 	lds	r22, 0x01B7
     788:	70 91 b8 01 	lds	r23, 0x01B8
     78c:	80 91 b9 01 	lds	r24, 0x01B9
     790:	90 91 ba 01 	lds	r25, 0x01BA
     794:	0e 94 dd 0a 	call	0x15ba	; 0x15ba <LCD_print_alarm_display>
			CLEAR_BUTTONS;
     798:	10 92 a2 01 	sts	0x01A2, r1
     79c:	1d c0       	rjmp	.+58     	; 0x7d8 <main+0x368>
			break;
			case(B3):
			//WDT_RESET;
			alarmtime->minute++;
     79e:	f5 01       	movw	r30, r10
     7a0:	80 81       	ld	r24, Z
     7a2:	8f 5f       	subi	r24, 0xFF	; 255
			if(alarmtime->minute >= 60){
     7a4:	8c 33       	cpi	r24, 0x3C	; 60
     7a6:	10 f4       	brcc	.+4      	; 0x7ac <main+0x33c>
			LCD_print_alarm_display(*alarmtime,MINUTES);
			CLEAR_BUTTONS;
			break;
			case(B3):
			//WDT_RESET;
			alarmtime->minute++;
     7a8:	80 83       	st	Z, r24
     7aa:	01 c0       	rjmp	.+2      	; 0x7ae <main+0x33e>
			if(alarmtime->minute >= 60){
				alarmtime->minute = 0;
     7ac:	10 82       	st	Z, r1
			}
			LCD_print_alarm_display(*alarmtime,MINUTES);
     7ae:	00 e0       	ldi	r16, 0x00	; 0
     7b0:	20 91 b3 01 	lds	r18, 0x01B3
     7b4:	30 91 b4 01 	lds	r19, 0x01B4
     7b8:	40 91 b5 01 	lds	r20, 0x01B5
     7bc:	50 91 b6 01 	lds	r21, 0x01B6
     7c0:	60 91 b7 01 	lds	r22, 0x01B7
     7c4:	70 91 b8 01 	lds	r23, 0x01B8
     7c8:	80 91 b9 01 	lds	r24, 0x01B9
     7cc:	90 91 ba 01 	lds	r25, 0x01BA
     7d0:	0e 94 dd 0a 	call	0x15ba	; 0x15ba <LCD_print_alarm_display>
			CLEAR_BUTTONS;
     7d4:	10 92 a2 01 	sts	0x01A2, r1
			break;
		}
		hw_delay(5);
     7d8:	85 e0       	ldi	r24, 0x05	; 5
     7da:	90 e0       	ldi	r25, 0x00	; 0
     7dc:	0e 94 f7 0c 	call	0x19ee	; 0x19ee <hw_delay>
		}
		hw_delay(5);
	}
	CLEAR_BUTTONS;
	LCD_print_alarm_display(*alarmtime,MINUTES);
	while((g_button_pressed != B2) && (WDT_counter < WDT_TIMEOUT))
     7e0:	80 91 a2 01 	lds	r24, 0x01A2
     7e4:	82 30       	cpi	r24, 0x02	; 2
     7e6:	29 f0       	breq	.+10     	; 0x7f2 <main+0x382>
     7e8:	90 91 9c 01 	lds	r25, 0x019C
     7ec:	9f 30       	cpi	r25, 0x0F	; 15
     7ee:	08 f4       	brcc	.+2      	; 0x7f2 <main+0x382>
     7f0:	b4 cf       	rjmp	.-152    	; 0x75a <main+0x2ea>
			break;
		}
		hw_delay(5);
		// Update alarm set time in EEPROM
	}
	CLEAR_BUTTONS;
     7f2:	10 92 a2 01 	sts	0x01A2, r1
	LCD_print_alarm_display(*alarmtime,AMPM);
     7f6:	02 e0       	ldi	r16, 0x02	; 2
     7f8:	20 91 b3 01 	lds	r18, 0x01B3
     7fc:	30 91 b4 01 	lds	r19, 0x01B4
     800:	40 91 b5 01 	lds	r20, 0x01B5
     804:	50 91 b6 01 	lds	r21, 0x01B6
     808:	60 91 b7 01 	lds	r22, 0x01B7
     80c:	70 91 b8 01 	lds	r23, 0x01B8
     810:	80 91 b9 01 	lds	r24, 0x01B9
     814:	90 91 ba 01 	lds	r25, 0x01BA
     818:	0e 94 dd 0a 	call	0x15ba	; 0x15ba <LCD_print_alarm_display>
     81c:	26 c0       	rjmp	.+76     	; 0x86a <main+0x3fa>
	while((g_button_pressed != B2) && (WDT_counter < WDT_TIMEOUT))
	{
		hw_delay(5);
     81e:	85 e0       	ldi	r24, 0x05	; 5
     820:	90 e0       	ldi	r25, 0x00	; 0
     822:	0e 94 f7 0c 	call	0x19ee	; 0x19ee <hw_delay>
		if((g_button_pressed == B1) || (g_button_pressed == B3) )
     826:	80 91 a2 01 	lds	r24, 0x01A2
     82a:	8d 7f       	andi	r24, 0xFD	; 253
     82c:	81 30       	cpi	r24, 0x01	; 1
     82e:	e9 f4       	brne	.+58     	; 0x86a <main+0x3fa>
		{
			//WDT_RESET;
			alarmtime->AM_PM++;
     830:	f1 01       	movw	r30, r2
     832:	80 81       	ld	r24, Z
     834:	8f 5f       	subi	r24, 0xFF	; 255
			if(alarmtime->AM_PM >= 2){
     836:	82 30       	cpi	r24, 0x02	; 2
     838:	10 f4       	brcc	.+4      	; 0x83e <main+0x3ce>
	{
		hw_delay(5);
		if((g_button_pressed == B1) || (g_button_pressed == B3) )
		{
			//WDT_RESET;
			alarmtime->AM_PM++;
     83a:	80 83       	st	Z, r24
     83c:	01 c0       	rjmp	.+2      	; 0x840 <main+0x3d0>
			if(alarmtime->AM_PM >= 2){
				alarmtime->AM_PM = 0;
     83e:	10 82       	st	Z, r1
			}
			LCD_print_alarm_display(*alarmtime,AMPM);
     840:	02 e0       	ldi	r16, 0x02	; 2
     842:	20 91 b3 01 	lds	r18, 0x01B3
     846:	30 91 b4 01 	lds	r19, 0x01B4
     84a:	40 91 b5 01 	lds	r20, 0x01B5
     84e:	50 91 b6 01 	lds	r21, 0x01B6
     852:	60 91 b7 01 	lds	r22, 0x01B7
     856:	70 91 b8 01 	lds	r23, 0x01B8
     85a:	80 91 b9 01 	lds	r24, 0x01B9
     85e:	90 91 ba 01 	lds	r25, 0x01BA
     862:	0e 94 dd 0a 	call	0x15ba	; 0x15ba <LCD_print_alarm_display>
			CLEAR_BUTTONS;
     866:	10 92 a2 01 	sts	0x01A2, r1
		hw_delay(5);
		// Update alarm set time in EEPROM
	}
	CLEAR_BUTTONS;
	LCD_print_alarm_display(*alarmtime,AMPM);
	while((g_button_pressed != B2) && (WDT_counter < WDT_TIMEOUT))
     86a:	80 91 a2 01 	lds	r24, 0x01A2
     86e:	82 30       	cpi	r24, 0x02	; 2
     870:	21 f0       	breq	.+8      	; 0x87a <main+0x40a>
     872:	80 91 9c 01 	lds	r24, 0x019C
     876:	8f 30       	cpi	r24, 0x0F	; 15
     878:	90 f2       	brcs	.-92     	; 0x81e <main+0x3ae>
			CLEAR_BUTTONS;
		}
		// Update alarm set time in EEPROM
	}
	//store new alarm time in EEPROM
	eeprom_SetAlarm();
     87a:	0e 94 05 02 	call	0x40a	; 0x40a <eeprom_SetAlarm>
	CLEAR_BUTTONS;
     87e:	10 92 a2 01 	sts	0x01A2, r1
	LCD_clear_screen();
     882:	0e 94 bf 07 	call	0xf7e	; 0xf7e <LCD_clear_screen>
     886:	2d c1       	rjmp	.+602    	; 0xae2 <__stack+0x1e3>
Argument(s) : None.
Return value : None.
--------------------------------------------------------------------------------------------------*/

inline void set_alarm(alarm_t *alarmtime){
	LCD_print_alarm_display(*alarmtime,HOURS);
     888:	01 e0       	ldi	r16, 0x01	; 1
     88a:	20 91 cf 01 	lds	r18, 0x01CF
     88e:	30 91 d0 01 	lds	r19, 0x01D0
     892:	40 91 d1 01 	lds	r20, 0x01D1
     896:	50 91 d2 01 	lds	r21, 0x01D2
     89a:	60 91 d3 01 	lds	r22, 0x01D3
     89e:	70 91 d4 01 	lds	r23, 0x01D4
     8a2:	80 91 d5 01 	lds	r24, 0x01D5
     8a6:	90 91 d6 01 	lds	r25, 0x01D6
     8aa:	0e 94 dd 0a 	call	0x15ba	; 0x15ba <LCD_print_alarm_display>
	CLEAR_BUTTONS;
     8ae:	10 92 a2 01 	sts	0x01A2, r1
	while((g_button_pressed != B2) && (WDT_counter < WDT_TIMEOUT))
     8b2:	80 91 9c 01 	lds	r24, 0x019C
     8b6:	8f 30       	cpi	r24, 0x0F	; 15
     8b8:	08 f0       	brcs	.+2      	; 0x8bc <main+0x44c>
     8ba:	4c c0       	rjmp	.+152    	; 0x954 <__stack+0x55>
	{
		switch(g_button_pressed){
			case(B1):
			//WDT_RESET;
			if(alarmtime->hour <= 0){
				alarmtime->hour = 13;
     8bc:	1d e0       	ldi	r17, 0x0D	; 13
     8be:	3d c0       	rjmp	.+122    	; 0x93a <__stack+0x3b>
inline void set_alarm(alarm_t *alarmtime){
	LCD_print_alarm_display(*alarmtime,HOURS);
	CLEAR_BUTTONS;
	while((g_button_pressed != B2) && (WDT_counter < WDT_TIMEOUT))
	{
		switch(g_button_pressed){
     8c0:	81 30       	cpi	r24, 0x01	; 1
     8c2:	19 f0       	breq	.+6      	; 0x8ca <main+0x45a>
     8c4:	83 30       	cpi	r24, 0x03	; 3
     8c6:	e9 f0       	breq	.+58     	; 0x902 <__stack+0x3>
     8c8:	38 c0       	rjmp	.+112    	; 0x93a <__stack+0x3b>
			case(B1):
			//WDT_RESET;
			if(alarmtime->hour <= 0){
     8ca:	88 81       	ld	r24, Y
     8cc:	81 11       	cpse	r24, r1
     8ce:	02 c0       	rjmp	.+4      	; 0x8d4 <main+0x464>
				alarmtime->hour = 13;
     8d0:	18 83       	st	Y, r17
     8d2:	33 c0       	rjmp	.+102    	; 0x93a <__stack+0x3b>
				break;
			}
			alarmtime->hour = alarmtime->hour - 1;
     8d4:	81 50       	subi	r24, 0x01	; 1
     8d6:	28 2f       	mov	r18, r24
     8d8:	88 83       	st	Y, r24
			LCD_print_alarm_display(*alarmtime,HOURS);
     8da:	01 e0       	ldi	r16, 0x01	; 1
     8dc:	30 91 d0 01 	lds	r19, 0x01D0
     8e0:	40 91 d1 01 	lds	r20, 0x01D1
     8e4:	50 91 d2 01 	lds	r21, 0x01D2
     8e8:	60 91 d3 01 	lds	r22, 0x01D3
     8ec:	70 91 d4 01 	lds	r23, 0x01D4
     8f0:	80 91 d5 01 	lds	r24, 0x01D5
     8f4:	90 91 d6 01 	lds	r25, 0x01D6
     8f8:	0e 94 dd 0a 	call	0x15ba	; 0x15ba <LCD_print_alarm_display>
			CLEAR_BUTTONS;
     8fc:	10 92 a2 01 	sts	0x01A2, r1
     900:	1c c0       	rjmp	.+56     	; 0x93a <__stack+0x3b>
			break;
			case(B3):
			//WDT_RESET;
			alarmtime->hour++;
     902:	88 81       	ld	r24, Y
     904:	8f 5f       	subi	r24, 0xFF	; 255
			if(alarmtime->hour >= 13){
     906:	8d 30       	cpi	r24, 0x0D	; 13
     908:	10 f4       	brcc	.+4      	; 0x90e <__stack+0xf>
			LCD_print_alarm_display(*alarmtime,HOURS);
			CLEAR_BUTTONS;
			break;
			case(B3):
			//WDT_RESET;
			alarmtime->hour++;
     90a:	88 83       	st	Y, r24
     90c:	01 c0       	rjmp	.+2      	; 0x910 <__stack+0x11>
			if(alarmtime->hour >= 13){
				alarmtime->hour = 0;
     90e:	18 82       	st	Y, r1
			}
			LCD_print_alarm_display(*alarmtime,HOURS);
     910:	01 e0       	ldi	r16, 0x01	; 1
     912:	20 91 cf 01 	lds	r18, 0x01CF
     916:	30 91 d0 01 	lds	r19, 0x01D0
     91a:	40 91 d1 01 	lds	r20, 0x01D1
     91e:	50 91 d2 01 	lds	r21, 0x01D2
     922:	60 91 d3 01 	lds	r22, 0x01D3
     926:	70 91 d4 01 	lds	r23, 0x01D4
     92a:	80 91 d5 01 	lds	r24, 0x01D5
     92e:	90 91 d6 01 	lds	r25, 0x01D6
     932:	0e 94 dd 0a 	call	0x15ba	; 0x15ba <LCD_print_alarm_display>
			CLEAR_BUTTONS;
     936:	10 92 a2 01 	sts	0x01A2, r1
			break;
		}
		hw_delay(5);
     93a:	85 e0       	ldi	r24, 0x05	; 5
     93c:	90 e0       	ldi	r25, 0x00	; 0
     93e:	0e 94 f7 0c 	call	0x19ee	; 0x19ee <hw_delay>
--------------------------------------------------------------------------------------------------*/

inline void set_alarm(alarm_t *alarmtime){
	LCD_print_alarm_display(*alarmtime,HOURS);
	CLEAR_BUTTONS;
	while((g_button_pressed != B2) && (WDT_counter < WDT_TIMEOUT))
     942:	80 91 a2 01 	lds	r24, 0x01A2
     946:	82 30       	cpi	r24, 0x02	; 2
     948:	29 f0       	breq	.+10     	; 0x954 <__stack+0x55>
     94a:	90 91 9c 01 	lds	r25, 0x019C
     94e:	9f 30       	cpi	r25, 0x0F	; 15
     950:	08 f4       	brcc	.+2      	; 0x954 <__stack+0x55>
     952:	b6 cf       	rjmp	.-148    	; 0x8c0 <main+0x450>
			CLEAR_BUTTONS;
			break;
		}
		hw_delay(5);
	}
	CLEAR_BUTTONS;
     954:	10 92 a2 01 	sts	0x01A2, r1
	LCD_print_alarm_display(*alarmtime,MINUTES);
     958:	00 e0       	ldi	r16, 0x00	; 0
     95a:	20 91 cf 01 	lds	r18, 0x01CF
     95e:	30 91 d0 01 	lds	r19, 0x01D0
     962:	40 91 d1 01 	lds	r20, 0x01D1
     966:	50 91 d2 01 	lds	r21, 0x01D2
     96a:	60 91 d3 01 	lds	r22, 0x01D3
     96e:	70 91 d4 01 	lds	r23, 0x01D4
     972:	80 91 d5 01 	lds	r24, 0x01D5
     976:	90 91 d6 01 	lds	r25, 0x01D6
     97a:	0e 94 dd 0a 	call	0x15ba	; 0x15ba <LCD_print_alarm_display>
	while((g_button_pressed != B2) && (WDT_counter < WDT_TIMEOUT))
     97e:	80 91 a2 01 	lds	r24, 0x01A2
     982:	82 30       	cpi	r24, 0x02	; 2
     984:	09 f4       	brne	.+2      	; 0x988 <__stack+0x89>
     986:	52 c0       	rjmp	.+164    	; 0xa2c <__stack+0x12d>
     988:	90 91 9c 01 	lds	r25, 0x019C
     98c:	9f 30       	cpi	r25, 0x0F	; 15
     98e:	08 f0       	brcs	.+2      	; 0x992 <__stack+0x93>
     990:	4d c0       	rjmp	.+154    	; 0xa2c <__stack+0x12d>
	{
		switch(g_button_pressed){
			case(B1):
			//WDT_RESET;
			if(alarmtime->minute <= 0){
				alarmtime->minute = 60;
     992:	1c e3       	ldi	r17, 0x3C	; 60
	}
	CLEAR_BUTTONS;
	LCD_print_alarm_display(*alarmtime,MINUTES);
	while((g_button_pressed != B2) && (WDT_counter < WDT_TIMEOUT))
	{
		switch(g_button_pressed){
     994:	81 30       	cpi	r24, 0x01	; 1
     996:	19 f0       	breq	.+6      	; 0x99e <__stack+0x9f>
     998:	83 30       	cpi	r24, 0x03	; 3
     99a:	f1 f0       	breq	.+60     	; 0x9d8 <__stack+0xd9>
     99c:	3a c0       	rjmp	.+116    	; 0xa12 <__stack+0x113>
			case(B1):
			//WDT_RESET;
			if(alarmtime->minute <= 0){
     99e:	f3 01       	movw	r30, r6
     9a0:	80 81       	ld	r24, Z
     9a2:	81 11       	cpse	r24, r1
     9a4:	02 c0       	rjmp	.+4      	; 0x9aa <__stack+0xab>
				alarmtime->minute = 60;
     9a6:	10 83       	st	Z, r17
     9a8:	34 c0       	rjmp	.+104    	; 0xa12 <__stack+0x113>
				break;
			}
			alarmtime->minute = alarmtime->minute - 1;
     9aa:	81 50       	subi	r24, 0x01	; 1
     9ac:	38 2f       	mov	r19, r24
     9ae:	80 83       	st	Z, r24
			LCD_print_alarm_display(*alarmtime,MINUTES);
     9b0:	00 e0       	ldi	r16, 0x00	; 0
     9b2:	20 91 cf 01 	lds	r18, 0x01CF
     9b6:	40 91 d1 01 	lds	r20, 0x01D1
     9ba:	50 91 d2 01 	lds	r21, 0x01D2
     9be:	60 91 d3 01 	lds	r22, 0x01D3
     9c2:	70 91 d4 01 	lds	r23, 0x01D4
     9c6:	80 91 d5 01 	lds	r24, 0x01D5
     9ca:	90 91 d6 01 	lds	r25, 0x01D6
     9ce:	0e 94 dd 0a 	call	0x15ba	; 0x15ba <LCD_print_alarm_display>
			CLEAR_BUTTONS;
     9d2:	10 92 a2 01 	sts	0x01A2, r1
     9d6:	1d c0       	rjmp	.+58     	; 0xa12 <__stack+0x113>
			break;
			case(B3):
			//WDT_RESET;
			alarmtime->minute++;
     9d8:	f3 01       	movw	r30, r6
     9da:	80 81       	ld	r24, Z
     9dc:	8f 5f       	subi	r24, 0xFF	; 255
			if(alarmtime->minute >= 60){
     9de:	8c 33       	cpi	r24, 0x3C	; 60
     9e0:	10 f4       	brcc	.+4      	; 0x9e6 <__stack+0xe7>
			LCD_print_alarm_display(*alarmtime,MINUTES);
			CLEAR_BUTTONS;
			break;
			case(B3):
			//WDT_RESET;
			alarmtime->minute++;
     9e2:	80 83       	st	Z, r24
     9e4:	01 c0       	rjmp	.+2      	; 0x9e8 <__stack+0xe9>
			if(alarmtime->minute >= 60){
				alarmtime->minute = 0;
     9e6:	10 82       	st	Z, r1
			}
			LCD_print_alarm_display(*alarmtime,MINUTES);
     9e8:	00 e0       	ldi	r16, 0x00	; 0
     9ea:	20 91 cf 01 	lds	r18, 0x01CF
     9ee:	30 91 d0 01 	lds	r19, 0x01D0
     9f2:	40 91 d1 01 	lds	r20, 0x01D1
     9f6:	50 91 d2 01 	lds	r21, 0x01D2
     9fa:	60 91 d3 01 	lds	r22, 0x01D3
     9fe:	70 91 d4 01 	lds	r23, 0x01D4
     a02:	80 91 d5 01 	lds	r24, 0x01D5
     a06:	90 91 d6 01 	lds	r25, 0x01D6
     a0a:	0e 94 dd 0a 	call	0x15ba	; 0x15ba <LCD_print_alarm_display>
			CLEAR_BUTTONS;
     a0e:	10 92 a2 01 	sts	0x01A2, r1
			break;
		}
		hw_delay(5);
     a12:	85 e0       	ldi	r24, 0x05	; 5
     a14:	90 e0       	ldi	r25, 0x00	; 0
     a16:	0e 94 f7 0c 	call	0x19ee	; 0x19ee <hw_delay>
		}
		hw_delay(5);
	}
	CLEAR_BUTTONS;
	LCD_print_alarm_display(*alarmtime,MINUTES);
	while((g_button_pressed != B2) && (WDT_counter < WDT_TIMEOUT))
     a1a:	80 91 a2 01 	lds	r24, 0x01A2
     a1e:	82 30       	cpi	r24, 0x02	; 2
     a20:	29 f0       	breq	.+10     	; 0xa2c <__stack+0x12d>
     a22:	90 91 9c 01 	lds	r25, 0x019C
     a26:	9f 30       	cpi	r25, 0x0F	; 15
     a28:	08 f4       	brcc	.+2      	; 0xa2c <__stack+0x12d>
     a2a:	b4 cf       	rjmp	.-152    	; 0x994 <__stack+0x95>
			break;
		}
		hw_delay(5);
		// Update alarm set time in EEPROM
	}
	CLEAR_BUTTONS;
     a2c:	10 92 a2 01 	sts	0x01A2, r1
	LCD_print_alarm_display(*alarmtime,AMPM);
     a30:	02 e0       	ldi	r16, 0x02	; 2
     a32:	20 91 cf 01 	lds	r18, 0x01CF
     a36:	30 91 d0 01 	lds	r19, 0x01D0
     a3a:	40 91 d1 01 	lds	r20, 0x01D1
     a3e:	50 91 d2 01 	lds	r21, 0x01D2
     a42:	60 91 d3 01 	lds	r22, 0x01D3
     a46:	70 91 d4 01 	lds	r23, 0x01D4
     a4a:	80 91 d5 01 	lds	r24, 0x01D5
     a4e:	90 91 d6 01 	lds	r25, 0x01D6
     a52:	0e 94 dd 0a 	call	0x15ba	; 0x15ba <LCD_print_alarm_display>
     a56:	26 c0       	rjmp	.+76     	; 0xaa4 <__stack+0x1a5>
	while((g_button_pressed != B2) && (WDT_counter < WDT_TIMEOUT))
	{
		hw_delay(5);
     a58:	85 e0       	ldi	r24, 0x05	; 5
     a5a:	90 e0       	ldi	r25, 0x00	; 0
     a5c:	0e 94 f7 0c 	call	0x19ee	; 0x19ee <hw_delay>
		if((g_button_pressed == B1) || (g_button_pressed == B3) )
     a60:	80 91 a2 01 	lds	r24, 0x01A2
     a64:	8d 7f       	andi	r24, 0xFD	; 253
     a66:	81 30       	cpi	r24, 0x01	; 1
     a68:	e9 f4       	brne	.+58     	; 0xaa4 <__stack+0x1a5>
		{
			//WDT_RESET;
			alarmtime->AM_PM++;
     a6a:	f2 01       	movw	r30, r4
     a6c:	80 81       	ld	r24, Z
     a6e:	8f 5f       	subi	r24, 0xFF	; 255
			if(alarmtime->AM_PM >= 2){
     a70:	82 30       	cpi	r24, 0x02	; 2
     a72:	10 f4       	brcc	.+4      	; 0xa78 <__stack+0x179>
	{
		hw_delay(5);
		if((g_button_pressed == B1) || (g_button_pressed == B3) )
		{
			//WDT_RESET;
			alarmtime->AM_PM++;
     a74:	80 83       	st	Z, r24
     a76:	01 c0       	rjmp	.+2      	; 0xa7a <__stack+0x17b>
			if(alarmtime->AM_PM >= 2){
				alarmtime->AM_PM = 0;
     a78:	10 82       	st	Z, r1
			}
			LCD_print_alarm_display(*alarmtime,AMPM);
     a7a:	02 e0       	ldi	r16, 0x02	; 2
     a7c:	20 91 cf 01 	lds	r18, 0x01CF
     a80:	30 91 d0 01 	lds	r19, 0x01D0
     a84:	40 91 d1 01 	lds	r20, 0x01D1
     a88:	50 91 d2 01 	lds	r21, 0x01D2
     a8c:	60 91 d3 01 	lds	r22, 0x01D3
     a90:	70 91 d4 01 	lds	r23, 0x01D4
     a94:	80 91 d5 01 	lds	r24, 0x01D5
     a98:	90 91 d6 01 	lds	r25, 0x01D6
     a9c:	0e 94 dd 0a 	call	0x15ba	; 0x15ba <LCD_print_alarm_display>
			CLEAR_BUTTONS;
     aa0:	10 92 a2 01 	sts	0x01A2, r1
		hw_delay(5);
		// Update alarm set time in EEPROM
	}
	CLEAR_BUTTONS;
	LCD_print_alarm_display(*alarmtime,AMPM);
	while((g_button_pressed != B2) && (WDT_counter < WDT_TIMEOUT))
     aa4:	80 91 a2 01 	lds	r24, 0x01A2
     aa8:	82 30       	cpi	r24, 0x02	; 2
     aaa:	21 f0       	breq	.+8      	; 0xab4 <__stack+0x1b5>
     aac:	80 91 9c 01 	lds	r24, 0x019C
     ab0:	8f 30       	cpi	r24, 0x0F	; 15
     ab2:	90 f2       	brcs	.-92     	; 0xa58 <__stack+0x159>
			CLEAR_BUTTONS;
		}
		// Update alarm set time in EEPROM
	}
	//store new alarm time in EEPROM
	eeprom_SetAlarm();
     ab4:	0e 94 05 02 	call	0x40a	; 0x40a <eeprom_SetAlarm>
	CLEAR_BUTTONS;
     ab8:	10 92 a2 01 	sts	0x01A2, r1
	LCD_clear_screen();
     abc:	0e 94 bf 07 	call	0xf7e	; 0xf7e <LCD_clear_screen>
     ac0:	10 c0       	rjmp	.+32     	; 0xae2 <__stack+0x1e3>
									//set Alarm2
									set_alarm(&alarmtime2);
									break;
								case(5):
									//back
									menufresh = 0;
     ac2:	10 92 9f 01 	sts	0x019F, r1
									LCD_clear_screen();
     ac6:	0e 94 bf 07 	call	0xf7e	; 0xf7e <LCD_clear_screen>
									break;
     aca:	0b c0       	rjmp	.+22     	; 0xae2 <__stack+0x1e3>
							}
							break;
						//move one selection down in menu
						case (B3):
							CLEAR_BUTTONS;
     acc:	10 92 a2 01 	sts	0x01A2, r1
							//WDT_RESET;
							menu_current++;
     ad0:	80 91 9d 01 	lds	r24, 0x019D
     ad4:	90 91 9e 01 	lds	r25, 0x019E
     ad8:	01 96       	adiw	r24, 0x01	; 1
     ada:	90 93 9e 01 	sts	0x019E, r25
     ade:	80 93 9d 01 	sts	0x019D, r24
							break;
					}
					//Handle going over the top or below the bottom selection
					if(menu_current == 6){
     ae2:	80 91 9d 01 	lds	r24, 0x019D
     ae6:	90 91 9e 01 	lds	r25, 0x019E
     aea:	86 30       	cpi	r24, 0x06	; 6
     aec:	91 05       	cpc	r25, r1
     aee:	29 f4       	brne	.+10     	; 0xafa <__stack+0x1fb>
						menu_current = 0;
     af0:	10 92 9e 01 	sts	0x019E, r1
     af4:	10 92 9d 01 	sts	0x019D, r1
     af8:	08 c0       	rjmp	.+16     	; 0xb0a <__stack+0x20b>
					}
					else if(menu_current == -1){
     afa:	01 96       	adiw	r24, 0x01	; 1
     afc:	31 f4       	brne	.+12     	; 0xb0a <__stack+0x20b>
						menu_current = 5;
     afe:	85 e0       	ldi	r24, 0x05	; 5
     b00:	90 e0       	ldi	r25, 0x00	; 0
     b02:	90 93 9e 01 	sts	0x019E, r25
     b06:	80 93 9d 01 	sts	0x019D, r24
				//Set the select to first element in the menu
				menu_current = 0;
				LCD_clear_screen();
				//Loop for main menu while the WDT hasn't timed out and 
				// the user hasn't selected back
				while(menufresh && (WDT_counter < WDT_TIMEOUT))
     b0a:	80 91 9f 01 	lds	r24, 0x019F
     b0e:	88 23       	and	r24, r24
     b10:	09 f4       	brne	.+2      	; 0xb14 <__stack+0x215>
     b12:	3b cd       	rjmp	.-1418   	; 0x58a <main+0x11a>
     b14:	80 91 9c 01 	lds	r24, 0x019C
     b18:	8f 30       	cpi	r24, 0x0F	; 15
     b1a:	08 f4       	brcc	.+2      	; 0xb1e <__stack+0x21f>
     b1c:	6b cd       	rjmp	.-1322   	; 0x5f4 <main+0x184>
     b1e:	35 cd       	rjmp	.-1430   	; 0x58a <main+0x11a>
					}
				}
				break;
			//toggle alarm 1 on or off
			case (B3):
				CLEAR_BUTTONS;
     b20:	10 92 a2 01 	sts	0x01A2, r1
				//toggle alarm 1
				alarmtime1.on_off ^= 0x01;
     b24:	06 eb       	ldi	r16, 0xB6	; 182
     b26:	11 e0       	ldi	r17, 0x01	; 1
     b28:	f8 01       	movw	r30, r16
     b2a:	60 81       	ld	r22, Z
     b2c:	81 e0       	ldi	r24, 0x01	; 1
     b2e:	68 27       	eor	r22, r24
     b30:	60 83       	st	Z, r22
				eeprom_update_byte(&alarm_onoff1, alarmtime1.on_off);
     b32:	84 e0       	ldi	r24, 0x04	; 4
     b34:	90 e0       	ldi	r25, 0x00	; 0
     b36:	0e 94 af 0d 	call	0x1b5e	; 0x1b5e <__eeupd_byte_m328p>
				//update string to be displayed
				if(alarmtime1.on_off){
     b3a:	d8 01       	movw	r26, r16
     b3c:	8c 91       	ld	r24, X
     b3e:	88 23       	and	r24, r24
     b40:	69 f0       	breq	.+26     	; 0xb5c <__stack+0x25d>
					strcpy(string_alarm_onoff1,on);
     b42:	8f e4       	ldi	r24, 0x4F	; 79
     b44:	9e e4       	ldi	r25, 0x4E	; 78
     b46:	a0 e2       	ldi	r26, 0x20	; 32
     b48:	b0 e0       	ldi	r27, 0x00	; 0
     b4a:	80 93 c5 01 	sts	0x01C5, r24
     b4e:	90 93 c6 01 	sts	0x01C6, r25
     b52:	a0 93 c7 01 	sts	0x01C7, r26
     b56:	b0 93 c8 01 	sts	0x01C8, r27
     b5a:	17 cd       	rjmp	.-1490   	; 0x58a <main+0x11a>
				}
				else{
					strcpy(string_alarm_onoff1,off);
     b5c:	8f e4       	ldi	r24, 0x4F	; 79
     b5e:	96 e4       	ldi	r25, 0x46	; 70
     b60:	a6 e4       	ldi	r26, 0x46	; 70
     b62:	b0 e0       	ldi	r27, 0x00	; 0
     b64:	80 93 c5 01 	sts	0x01C5, r24
     b68:	90 93 c6 01 	sts	0x01C6, r25
     b6c:	a0 93 c7 01 	sts	0x01C7, r26
     b70:	b0 93 c8 01 	sts	0x01C8, r27
     b74:	0a cd       	rjmp	.-1516   	; 0x58a <main+0x11a>
				}
				break;
			case(B1H):
				CLEAR_BUTTONS;
     b76:	10 92 a2 01 	sts	0x01A2, r1
				//radio on/off
				break;
     b7a:	07 cd       	rjmp	.-1522   	; 0x58a <main+0x11a>
			case(B2H):
				CLEAR_BUTTONS;
     b7c:	10 92 a2 01 	sts	0x01A2, r1
				break;
     b80:	04 cd       	rjmp	.-1528   	; 0x58a <main+0x11a>
			//toggle alarm 2 on or off (to be replaced with switches)
			case(B3H):
				CLEAR_BUTTONS;
     b82:	10 92 a2 01 	sts	0x01A2, r1
				//toggle alarm 2
				alarmtime2.on_off ^= 0x01;
     b86:	02 ed       	ldi	r16, 0xD2	; 210
     b88:	11 e0       	ldi	r17, 0x01	; 1
     b8a:	d8 01       	movw	r26, r16
     b8c:	6c 91       	ld	r22, X
     b8e:	81 e0       	ldi	r24, 0x01	; 1
     b90:	68 27       	eor	r22, r24
     b92:	6c 93       	st	X, r22
				eeprom_update_byte(&alarm_onoff2, alarmtime2.on_off);
     b94:	80 e0       	ldi	r24, 0x00	; 0
     b96:	90 e0       	ldi	r25, 0x00	; 0
     b98:	0e 94 af 0d 	call	0x1b5e	; 0x1b5e <__eeupd_byte_m328p>
				//update string to be displayed
				if(alarmtime2.on_off){
     b9c:	f8 01       	movw	r30, r16
     b9e:	80 81       	ld	r24, Z
     ba0:	88 23       	and	r24, r24
     ba2:	69 f0       	breq	.+26     	; 0xbbe <__stack+0x2bf>
					strcpy(string_alarm_onoff2,on);
     ba4:	8f e4       	ldi	r24, 0x4F	; 79
     ba6:	9e e4       	ldi	r25, 0x4E	; 78
     ba8:	a0 e2       	ldi	r26, 0x20	; 32
     baa:	b0 e0       	ldi	r27, 0x00	; 0
     bac:	80 93 bb 01 	sts	0x01BB, r24
     bb0:	90 93 bc 01 	sts	0x01BC, r25
     bb4:	a0 93 bd 01 	sts	0x01BD, r26
     bb8:	b0 93 be 01 	sts	0x01BE, r27
     bbc:	e6 cc       	rjmp	.-1588   	; 0x58a <main+0x11a>
				}
				else{
					strcpy(string_alarm_onoff2,off);
     bbe:	8f e4       	ldi	r24, 0x4F	; 79
     bc0:	96 e4       	ldi	r25, 0x46	; 70
     bc2:	a6 e4       	ldi	r26, 0x46	; 70
     bc4:	b0 e0       	ldi	r27, 0x00	; 0
     bc6:	80 93 bb 01 	sts	0x01BB, r24
     bca:	90 93 bc 01 	sts	0x01BC, r25
     bce:	a0 93 bd 01 	sts	0x01BD, r26
     bd2:	b0 93 be 01 	sts	0x01BE, r27
     bd6:	d9 cc       	rjmp	.-1614   	; 0x58a <main+0x11a>
				break;
			//default alarm and radio display
			//need to add if statement that tailors display for the radio being on/off
			default:
				//If the counter is greater than timeout, reset it
				if(WDT_counter >= WDT_TIMEOUT)
     bd8:	80 91 9c 01 	lds	r24, 0x019C
     bdc:	8f 30       	cpi	r24, 0x0F	; 15
     bde:	20 f0       	brcs	.+8      	; 0xbe8 <__stack+0x2e9>
				{
					WDT_RESET;
     be0:	10 92 9c 01 	sts	0x019C, r1
					//Clear screen in case UI timed out
					LCD_clear_screen();
     be4:	0e 94 bf 07 	call	0xf7e	; 0xf7e <LCD_clear_screen>
				}
				
				//Read current time and update main display
				RTC_Read(&times);
     be8:	8b ea       	ldi	r24, 0xAB	; 171
     bea:	91 e0       	ldi	r25, 0x01	; 1
     bec:	0e 94 92 0c 	call	0x1924	; 0x1924 <RTC_Read>
				LCD_print_time_display(times, 21,"RADIO", "MENU", string_alarm_onoff1, string_alarm_onoff2);
     bf0:	0f 2e       	mov	r0, r31
     bf2:	fb eb       	ldi	r31, 0xBB	; 187
     bf4:	8f 2e       	mov	r8, r31
     bf6:	f1 e0       	ldi	r31, 0x01	; 1
     bf8:	9f 2e       	mov	r9, r31
     bfa:	f0 2d       	mov	r31, r0
     bfc:	0f 2e       	mov	r0, r31
     bfe:	f5 ec       	ldi	r31, 0xC5	; 197
     c00:	af 2e       	mov	r10, r31
     c02:	f1 e0       	ldi	r31, 0x01	; 1
     c04:	bf 2e       	mov	r11, r31
     c06:	f0 2d       	mov	r31, r0
     c08:	0f 2e       	mov	r0, r31
     c0a:	f0 e0       	ldi	r31, 0x00	; 0
     c0c:	cf 2e       	mov	r12, r31
     c0e:	f1 e0       	ldi	r31, 0x01	; 1
     c10:	df 2e       	mov	r13, r31
     c12:	f0 2d       	mov	r31, r0
     c14:	0f 2e       	mov	r0, r31
     c16:	f5 e0       	ldi	r31, 0x05	; 5
     c18:	ef 2e       	mov	r14, r31
     c1a:	f1 e0       	ldi	r31, 0x01	; 1
     c1c:	ff 2e       	mov	r15, r31
     c1e:	f0 2d       	mov	r31, r0
     c20:	05 e1       	ldi	r16, 0x15	; 21
     c22:	10 e0       	ldi	r17, 0x00	; 0
     c24:	20 91 ab 01 	lds	r18, 0x01AB
     c28:	30 91 ac 01 	lds	r19, 0x01AC
     c2c:	40 91 ad 01 	lds	r20, 0x01AD
     c30:	50 91 ae 01 	lds	r21, 0x01AE
     c34:	60 91 af 01 	lds	r22, 0x01AF
     c38:	70 91 b0 01 	lds	r23, 0x01B0
     c3c:	80 91 b1 01 	lds	r24, 0x01B1
     c40:	90 91 b2 01 	lds	r25, 0x01B2
     c44:	0e 94 51 0a 	call	0x14a2	; 0x14a2 <LCD_print_time_display>
Return value : None.
--------------------------------------------------------------------------------------------------*/

inline void check_alarms(void){
	//check if alarm 1 has gone off
	if((alarmtime1.hour == times.hour) && (alarmtime1.minute == times.minute) && (alarmtime1.AM_PM == times.AM_PM)
     c48:	90 91 b3 01 	lds	r25, 0x01B3
     c4c:	80 91 af 01 	lds	r24, 0x01AF
     c50:	98 13       	cpse	r25, r24
     c52:	46 c0       	rjmp	.+140    	; 0xce0 <__stack+0x3e1>
     c54:	80 91 b4 01 	lds	r24, 0x01B4
     c58:	90 91 b0 01 	lds	r25, 0x01B0
     c5c:	89 13       	cpse	r24, r25
     c5e:	40 c0       	rjmp	.+128    	; 0xce0 <__stack+0x3e1>
     c60:	d1 01       	movw	r26, r2
     c62:	2c 91       	ld	r18, X
     c64:	90 91 b2 01 	lds	r25, 0x01B2
     c68:	29 13       	cpse	r18, r25
     c6a:	3a c0       	rjmp	.+116    	; 0xce0 <__stack+0x3e1>
	&& (alarmtime1.on_off) && (alarmfresh1 != times.minute))
     c6c:	90 91 b6 01 	lds	r25, 0x01B6
     c70:	99 23       	and	r25, r25
     c72:	b1 f1       	breq	.+108    	; 0xce0 <__stack+0x3e1>
     c74:	90 91 a1 01 	lds	r25, 0x01A1
     c78:	89 17       	cp	r24, r25
     c7a:	91 f1       	breq	.+100    	; 0xce0 <__stack+0x3e1>
	{
		//update variable to make sure alarm doesn't repeatedly go off for a minute
		alarmfresh1 = times.minute;
     c7c:	80 93 a1 01 	sts	0x01A1, r24
		Timer1PWM_OnOff(PWM_ON);
     c80:	81 e0       	ldi	r24, 0x01	; 1
     c82:	0e 94 0a 0d 	call	0x1a14	; 0x1a14 <Timer1PWM_OnOff>
		LCD_clear_screen();
     c86:	0e 94 bf 07 	call	0xf7e	; 0xf7e <LCD_clear_screen>
		LCD_goto(0,0);
     c8a:	60 e0       	ldi	r22, 0x00	; 0
     c8c:	70 e0       	ldi	r23, 0x00	; 0
     c8e:	80 e0       	ldi	r24, 0x00	; 0
     c90:	90 e0       	ldi	r25, 0x00	; 0
     c92:	0e 94 b4 07 	call	0xf68	; 0xf68 <LCD_goto>
		LCD_print_string("ALARM 1!",0);
     c96:	60 e0       	ldi	r22, 0x00	; 0
     c98:	8b e0       	ldi	r24, 0x0B	; 11
     c9a:	91 e0       	ldi	r25, 0x01	; 1
     c9c:	0e 94 ce 09 	call	0x139c	; 0x139c <LCD_print_string>
		LCD_print_bottom_menu("OFF", " ", " ");
     ca0:	41 e3       	ldi	r20, 0x31	; 49
     ca2:	51 e0       	ldi	r21, 0x01	; 1
     ca4:	ba 01       	movw	r22, r20
     ca6:	84 e1       	ldi	r24, 0x14	; 20
     ca8:	91 e0       	ldi	r25, 0x01	; 1
     caa:	0e 94 ea 09 	call	0x13d4	; 0x13d4 <LCD_print_bottom_menu>
		CLEAR_BUTTONS;
     cae:	10 92 a2 01 	sts	0x01A2, r1
		WDT_RESET;
     cb2:	10 92 9c 01 	sts	0x019C, r1
		while(!g_button_pressed && (WDT_counter < (WDT_TIMEOUT/4))){
			RTC_Read(&times);
     cb6:	8b ea       	ldi	r24, 0xAB	; 171
     cb8:	91 e0       	ldi	r25, 0x01	; 1
     cba:	0e 94 92 0c 	call	0x1924	; 0x1924 <RTC_Read>
			hw_delay(5);
     cbe:	85 e0       	ldi	r24, 0x05	; 5
     cc0:	90 e0       	ldi	r25, 0x00	; 0
     cc2:	0e 94 f7 0c 	call	0x19ee	; 0x19ee <hw_delay>
		LCD_goto(0,0);
		LCD_print_string("ALARM 1!",0);
		LCD_print_bottom_menu("OFF", " ", " ");
		CLEAR_BUTTONS;
		WDT_RESET;
		while(!g_button_pressed && (WDT_counter < (WDT_TIMEOUT/4))){
     cc6:	80 91 a2 01 	lds	r24, 0x01A2
     cca:	81 11       	cpse	r24, r1
     ccc:	04 c0       	rjmp	.+8      	; 0xcd6 <__stack+0x3d7>
     cce:	80 91 9c 01 	lds	r24, 0x019C
     cd2:	83 30       	cpi	r24, 0x03	; 3
     cd4:	80 f3       	brcs	.-32     	; 0xcb6 <__stack+0x3b7>
			RTC_Read(&times);
			hw_delay(5);
		}
		Timer1PWM_OnOff(PWM_OFF);
     cd6:	80 e0       	ldi	r24, 0x00	; 0
     cd8:	0e 94 0a 0d 	call	0x1a14	; 0x1a14 <Timer1PWM_OnOff>
		CLEAR_BUTTONS;
     cdc:	10 92 a2 01 	sts	0x01A2, r1
		//WDT_RESET;
	}
	
	if((alarmtime2.hour == times.hour) && (alarmtime2.minute == times.minute) && (alarmtime2.AM_PM == times.AM_PM)
     ce0:	98 81       	ld	r25, Y
     ce2:	80 91 af 01 	lds	r24, 0x01AF
     ce6:	98 13       	cpse	r25, r24
     ce8:	50 cc       	rjmp	.-1888   	; 0x58a <main+0x11a>
     cea:	f3 01       	movw	r30, r6
     cec:	80 81       	ld	r24, Z
     cee:	90 91 b0 01 	lds	r25, 0x01B0
     cf2:	89 13       	cpse	r24, r25
     cf4:	4a cc       	rjmp	.-1900   	; 0x58a <main+0x11a>
     cf6:	d2 01       	movw	r26, r4
     cf8:	2c 91       	ld	r18, X
     cfa:	90 91 b2 01 	lds	r25, 0x01B2
     cfe:	29 13       	cpse	r18, r25
     d00:	44 cc       	rjmp	.-1912   	; 0x58a <main+0x11a>
	&& (alarmtime2.on_off) && (alarmfresh2 != times.minute))
     d02:	90 91 d2 01 	lds	r25, 0x01D2
     d06:	99 23       	and	r25, r25
     d08:	09 f4       	brne	.+2      	; 0xd0c <__stack+0x40d>
     d0a:	3f cc       	rjmp	.-1922   	; 0x58a <main+0x11a>
     d0c:	90 91 a0 01 	lds	r25, 0x01A0
     d10:	89 17       	cp	r24, r25
     d12:	09 f4       	brne	.+2      	; 0xd16 <__stack+0x417>
     d14:	3a cc       	rjmp	.-1932   	; 0x58a <main+0x11a>
	{
		alarmfresh2 = times.minute;
     d16:	80 93 a0 01 	sts	0x01A0, r24
		Timer1PWM_OnOff(PWM_ON);
     d1a:	81 e0       	ldi	r24, 0x01	; 1
     d1c:	0e 94 0a 0d 	call	0x1a14	; 0x1a14 <Timer1PWM_OnOff>
		LCD_clear_screen();
     d20:	0e 94 bf 07 	call	0xf7e	; 0xf7e <LCD_clear_screen>
		LCD_goto(0,0);
     d24:	60 e0       	ldi	r22, 0x00	; 0
     d26:	70 e0       	ldi	r23, 0x00	; 0
     d28:	80 e0       	ldi	r24, 0x00	; 0
     d2a:	90 e0       	ldi	r25, 0x00	; 0
     d2c:	0e 94 b4 07 	call	0xf68	; 0xf68 <LCD_goto>
		LCD_print_string("ALARM 2!",0);
     d30:	60 e0       	ldi	r22, 0x00	; 0
     d32:	88 e1       	ldi	r24, 0x18	; 24
     d34:	91 e0       	ldi	r25, 0x01	; 1
     d36:	0e 94 ce 09 	call	0x139c	; 0x139c <LCD_print_string>
		LCD_print_bottom_menu("OFF", " ", " ");
     d3a:	41 e3       	ldi	r20, 0x31	; 49
     d3c:	51 e0       	ldi	r21, 0x01	; 1
     d3e:	ba 01       	movw	r22, r20
     d40:	84 e1       	ldi	r24, 0x14	; 20
     d42:	91 e0       	ldi	r25, 0x01	; 1
     d44:	0e 94 ea 09 	call	0x13d4	; 0x13d4 <LCD_print_bottom_menu>
		CLEAR_BUTTONS;
     d48:	10 92 a2 01 	sts	0x01A2, r1
		//WDT_RESET;
		while(!g_button_pressed && (WDT_counter < (WDT_TIMEOUT/4))){
     d4c:	80 91 9c 01 	lds	r24, 0x019C
     d50:	83 30       	cpi	r24, 0x03	; 3
     d52:	80 f4       	brcc	.+32     	; 0xd74 <__stack+0x475>
			RTC_Read(&times);
     d54:	8b ea       	ldi	r24, 0xAB	; 171
     d56:	91 e0       	ldi	r25, 0x01	; 1
     d58:	0e 94 92 0c 	call	0x1924	; 0x1924 <RTC_Read>
			hw_delay(5);
     d5c:	85 e0       	ldi	r24, 0x05	; 5
     d5e:	90 e0       	ldi	r25, 0x00	; 0
     d60:	0e 94 f7 0c 	call	0x19ee	; 0x19ee <hw_delay>
		LCD_goto(0,0);
		LCD_print_string("ALARM 2!",0);
		LCD_print_bottom_menu("OFF", " ", " ");
		CLEAR_BUTTONS;
		//WDT_RESET;
		while(!g_button_pressed && (WDT_counter < (WDT_TIMEOUT/4))){
     d64:	80 91 a2 01 	lds	r24, 0x01A2
     d68:	81 11       	cpse	r24, r1
     d6a:	04 c0       	rjmp	.+8      	; 0xd74 <__stack+0x475>
     d6c:	80 91 9c 01 	lds	r24, 0x019C
     d70:	83 30       	cpi	r24, 0x03	; 3
     d72:	80 f3       	brcs	.-32     	; 0xd54 <__stack+0x455>
			RTC_Read(&times);
			hw_delay(5);
		}
		Timer1PWM_OnOff(PWM_OFF);
     d74:	80 e0       	ldi	r24, 0x00	; 0
     d76:	0e 94 0a 0d 	call	0x1a14	; 0x1a14 <Timer1PWM_OnOff>
		CLEAR_BUTTONS;
     d7a:	10 92 a2 01 	sts	0x01A2, r1
     d7e:	05 cc       	rjmp	.-2038   	; 0x58a <main+0x11a>

00000d80 <__vector_14>:
Argument(s) : None.
Return value : None.
--------------------------------------------------------------------------------------------------*/
//Have yet to add switch handling and LEDs based on radio
ISR(TIMER0_COMPA_vect)
{
     d80:	1f 92       	push	r1
     d82:	0f 92       	push	r0
     d84:	0f b6       	in	r0, 0x3f	; 63
     d86:	0f 92       	push	r0
     d88:	11 24       	eor	r1, r1
     d8a:	2f 93       	push	r18
     d8c:	3f 93       	push	r19
     d8e:	4f 93       	push	r20
     d90:	5f 93       	push	r21
     d92:	6f 93       	push	r22
     d94:	7f 93       	push	r23
     d96:	8f 93       	push	r24
     d98:	9f 93       	push	r25
     d9a:	ef 93       	push	r30
	static int count;
	static int bpressed = 0;
	int button1Raw = (BUTTON_READ_REG & _BV(BUTTON_1)) == 0;
     d9c:	79 b1       	in	r23, 0x09	; 9
     d9e:	61 e0       	ldi	r22, 0x01	; 1
     da0:	76 27       	eor	r23, r22
	int button2Raw = (BUTTON_READ_REG & _BV(BUTTON_2)) == 0;
     da2:	e9 b1       	in	r30, 0x09	; 9
     da4:	e6 95       	lsr	r30
     da6:	e6 27       	eor	r30, r22
     da8:	8e 2f       	mov	r24, r30
     daa:	81 70       	andi	r24, 0x01	; 1
     dac:	90 e0       	ldi	r25, 0x00	; 0
	int button3Raw = (BUTTON_READ_REG & _BV(BUTTON_3)) == 0;
     dae:	e9 b1       	in	r30, 0x09	; 9
     db0:	e2 95       	swap	r30
     db2:	e6 95       	lsr	r30
     db4:	e7 70       	andi	r30, 0x07	; 7
     db6:	6e 27       	eor	r22, r30
     db8:	26 2f       	mov	r18, r22
     dba:	21 70       	andi	r18, 0x01	; 1
     dbc:	30 e0       	ldi	r19, 0x00	; 0
	
	if(button1Raw){
     dbe:	47 2f       	mov	r20, r23
     dc0:	41 70       	andi	r20, 0x01	; 1
     dc2:	50 e0       	ldi	r21, 0x00	; 0
     dc4:	70 ff       	sbrs	r23, 0
     dc6:	1d c0       	rjmp	.+58     	; 0xe02 <__vector_14+0x82>
		count++;
     dc8:	60 91 9a 01 	lds	r22, 0x019A
     dcc:	70 91 9b 01 	lds	r23, 0x019B
     dd0:	6f 5f       	subi	r22, 0xFF	; 255
     dd2:	7f 4f       	sbci	r23, 0xFF	; 255
     dd4:	70 93 9b 01 	sts	0x019B, r23
     dd8:	60 93 9a 01 	sts	0x019A, r22
		if(count == 50){
     ddc:	62 33       	cpi	r22, 0x32	; 50
     dde:	71 05       	cpc	r23, r1
     de0:	39 f4       	brne	.+14     	; 0xdf0 <__vector_14+0x70>
			bpressed = B1;
     de2:	61 e0       	ldi	r22, 0x01	; 1
     de4:	70 e0       	ldi	r23, 0x00	; 0
     de6:	70 93 99 01 	sts	0x0199, r23
     dea:	60 93 98 01 	sts	0x0198, r22
     dee:	09 c0       	rjmp	.+18     	; 0xe02 <__vector_14+0x82>
		}
		if(count == 700){
     df0:	6c 3b       	cpi	r22, 0xBC	; 188
     df2:	72 40       	sbci	r23, 0x02	; 2
     df4:	31 f4       	brne	.+12     	; 0xe02 <__vector_14+0x82>
			bpressed = B1H;
     df6:	64 e0       	ldi	r22, 0x04	; 4
     df8:	70 e0       	ldi	r23, 0x00	; 0
     dfa:	70 93 99 01 	sts	0x0199, r23
     dfe:	60 93 98 01 	sts	0x0198, r22
		}
	}
	
	if(button2Raw){
     e02:	00 97       	sbiw	r24, 0x00	; 0
     e04:	e9 f0       	breq	.+58     	; 0xe40 <__vector_14+0xc0>
		count++;
     e06:	60 91 9a 01 	lds	r22, 0x019A
     e0a:	70 91 9b 01 	lds	r23, 0x019B
     e0e:	6f 5f       	subi	r22, 0xFF	; 255
     e10:	7f 4f       	sbci	r23, 0xFF	; 255
     e12:	70 93 9b 01 	sts	0x019B, r23
     e16:	60 93 9a 01 	sts	0x019A, r22
		if(count == 50){
     e1a:	62 33       	cpi	r22, 0x32	; 50
     e1c:	71 05       	cpc	r23, r1
     e1e:	39 f4       	brne	.+14     	; 0xe2e <__vector_14+0xae>
			bpressed = B2;
     e20:	62 e0       	ldi	r22, 0x02	; 2
     e22:	70 e0       	ldi	r23, 0x00	; 0
     e24:	70 93 99 01 	sts	0x0199, r23
     e28:	60 93 98 01 	sts	0x0198, r22
     e2c:	09 c0       	rjmp	.+18     	; 0xe40 <__vector_14+0xc0>
		}
		if(count == 700){
     e2e:	6c 3b       	cpi	r22, 0xBC	; 188
     e30:	72 40       	sbci	r23, 0x02	; 2
     e32:	31 f4       	brne	.+12     	; 0xe40 <__vector_14+0xc0>
			bpressed = B2H;
     e34:	65 e0       	ldi	r22, 0x05	; 5
     e36:	70 e0       	ldi	r23, 0x00	; 0
     e38:	70 93 99 01 	sts	0x0199, r23
     e3c:	60 93 98 01 	sts	0x0198, r22
		}
	}
	
	if(button3Raw){
     e40:	21 15       	cp	r18, r1
     e42:	31 05       	cpc	r19, r1
     e44:	f1 f0       	breq	.+60     	; 0xe82 <__vector_14+0x102>
		count++;
     e46:	60 91 9a 01 	lds	r22, 0x019A
     e4a:	70 91 9b 01 	lds	r23, 0x019B
     e4e:	6f 5f       	subi	r22, 0xFF	; 255
     e50:	7f 4f       	sbci	r23, 0xFF	; 255
     e52:	70 93 9b 01 	sts	0x019B, r23
     e56:	60 93 9a 01 	sts	0x019A, r22
		if(count == 50){
     e5a:	62 33       	cpi	r22, 0x32	; 50
     e5c:	71 05       	cpc	r23, r1
     e5e:	39 f4       	brne	.+14     	; 0xe6e <__vector_14+0xee>
			bpressed = B3;
     e60:	63 e0       	ldi	r22, 0x03	; 3
     e62:	70 e0       	ldi	r23, 0x00	; 0
     e64:	70 93 99 01 	sts	0x0199, r23
     e68:	60 93 98 01 	sts	0x0198, r22
     e6c:	24 c0       	rjmp	.+72     	; 0xeb6 <__vector_14+0x136>
		}
		if(count == 700){
     e6e:	6c 3b       	cpi	r22, 0xBC	; 188
     e70:	72 40       	sbci	r23, 0x02	; 2
     e72:	39 f4       	brne	.+14     	; 0xe82 <__vector_14+0x102>
			bpressed = B3H;
     e74:	66 e0       	ldi	r22, 0x06	; 6
     e76:	70 e0       	ldi	r23, 0x00	; 0
     e78:	70 93 99 01 	sts	0x0199, r23
     e7c:	60 93 98 01 	sts	0x0198, r22
     e80:	07 c0       	rjmp	.+14     	; 0xe90 <__vector_14+0x110>
		}
	}
	if((bpressed > B3) && !button1Raw && !button2Raw && !button3Raw){
     e82:	60 91 98 01 	lds	r22, 0x0198
     e86:	70 91 99 01 	lds	r23, 0x0199
     e8a:	64 30       	cpi	r22, 0x04	; 4
     e8c:	71 05       	cpc	r23, r1
     e8e:	9c f0       	brlt	.+38     	; 0xeb6 <__vector_14+0x136>
     e90:	45 2b       	or	r20, r21
     e92:	31 f5       	brne	.+76     	; 0xee0 <__vector_14+0x160>
     e94:	89 2b       	or	r24, r25
     e96:	21 f5       	brne	.+72     	; 0xee0 <__vector_14+0x160>
     e98:	23 2b       	or	r18, r19
     e9a:	11 f5       	brne	.+68     	; 0xee0 <__vector_14+0x160>
		g_button_pressed = bpressed;
     e9c:	60 93 a2 01 	sts	0x01A2, r22
		bpressed = 0;
     ea0:	10 92 99 01 	sts	0x0199, r1
     ea4:	10 92 98 01 	sts	0x0198, r1
		count = 0;
     ea8:	10 92 9b 01 	sts	0x019B, r1
     eac:	10 92 9a 01 	sts	0x019A, r1
		WDT_RESET;
     eb0:	10 92 9c 01 	sts	0x019C, r1
     eb4:	15 c0       	rjmp	.+42     	; 0xee0 <__vector_14+0x160>
	}
	
	if(bpressed && !button1Raw && !button2Raw && !button3Raw)
     eb6:	61 15       	cp	r22, r1
     eb8:	71 05       	cpc	r23, r1
     eba:	91 f0       	breq	.+36     	; 0xee0 <__vector_14+0x160>
     ebc:	45 2b       	or	r20, r21
     ebe:	81 f4       	brne	.+32     	; 0xee0 <__vector_14+0x160>
     ec0:	89 2b       	or	r24, r25
     ec2:	71 f4       	brne	.+28     	; 0xee0 <__vector_14+0x160>
     ec4:	23 2b       	or	r18, r19
     ec6:	61 f4       	brne	.+24     	; 0xee0 <__vector_14+0x160>
	{
		g_button_pressed = bpressed;
     ec8:	60 93 a2 01 	sts	0x01A2, r22
		bpressed = 0;
     ecc:	10 92 99 01 	sts	0x0199, r1
     ed0:	10 92 98 01 	sts	0x0198, r1
		count = 0;
     ed4:	10 92 9b 01 	sts	0x019B, r1
     ed8:	10 92 9a 01 	sts	0x019A, r1
		WDT_RESET;
     edc:	10 92 9c 01 	sts	0x019C, r1
	}
	
}
     ee0:	ef 91       	pop	r30
     ee2:	9f 91       	pop	r25
     ee4:	8f 91       	pop	r24
     ee6:	7f 91       	pop	r23
     ee8:	6f 91       	pop	r22
     eea:	5f 91       	pop	r21
     eec:	4f 91       	pop	r20
     eee:	3f 91       	pop	r19
     ef0:	2f 91       	pop	r18
     ef2:	0f 90       	pop	r0
     ef4:	0f be       	out	0x3f, r0	; 63
     ef6:	0f 90       	pop	r0
     ef8:	1f 90       	pop	r1
     efa:	18 95       	reti

00000efc <__vector_6>:
Argument(s) : None.
Return value : None.
--------------------------------------------------------------------------------------------------*/

ISR(WDT_vect)
{
     efc:	1f 92       	push	r1
     efe:	0f 92       	push	r0
     f00:	0f b6       	in	r0, 0x3f	; 63
     f02:	0f 92       	push	r0
     f04:	11 24       	eor	r1, r1
     f06:	8f 93       	push	r24
	WDT_counter++;
     f08:	80 91 9c 01 	lds	r24, 0x019C
     f0c:	8f 5f       	subi	r24, 0xFF	; 255
     f0e:	80 93 9c 01 	sts	0x019C, r24
	
	//Still need to add functionality for System reset
}
     f12:	8f 91       	pop	r24
     f14:	0f 90       	pop	r0
     f16:	0f be       	out	0x3f, r0	; 63
     f18:	0f 90       	pop	r0
     f1a:	1f 90       	pop	r1
     f1c:	18 95       	reti

00000f1e <__vector_21>:
Argument(s) : None.
Return value : None.
--------------------------------------------------------------------------------------------------*/

ISR(ADC_vect)
{
     f1e:	1f 92       	push	r1
     f20:	0f 92       	push	r0
     f22:	0f b6       	in	r0, 0x3f	; 63
     f24:	0f 92       	push	r0
     f26:	11 24       	eor	r1, r1
	//add logic for handling 2 ADCs
}
     f28:	0f 90       	pop	r0
     f2a:	0f be       	out	0x3f, r0	; 63
     f2c:	0f 90       	pop	r0
     f2e:	1f 90       	pop	r1
     f30:	18 95       	reti

00000f32 <LCD_SPI_initialize>:
Return value : None.
--------------------------------------------------------------------------------------------------*/
void LCD_SPI_initialize()
{
	// Set data direction for LCD output control pins
	LCD_DD_RESET  |= _BV(LCD_RESET_PIN);
     f32:	20 9a       	sbi	0x04, 0	; 4
	LCD_DD_SCK    |= _BV(LCD_SCK);
     f34:	25 9a       	sbi	0x04, 5	; 4
	LCD_DD_MOSI   |= _BV(LCD_MOSI);     
     f36:	23 9a       	sbi	0x04, 3	; 4
	LCD_DD_D_OR_C |= _BV(LCD_D_OR_C);   
     f38:	54 9a       	sbi	0x0a, 4	; 10
	LCD_DD_SS     |= _BV(LCD_SS);    
     f3a:	22 9a       	sbi	0x04, 2	; 4
	
	// Setting SPI clock generator to Fclk/16 and enabling SPI peripheral and setting in master mode
	SPCR = _BV(SPE) | _BV(MSTR) | _BV(SPR0);
     f3c:	81 e5       	ldi	r24, 0x51	; 81
     f3e:	8c bd       	out	0x2c, r24	; 44
     f40:	08 95       	ret

00000f42 <LCD_send_command>:
--------------------------------------------------------------------------------------------------*/
void LCD_send_command(BYTE command_to_send)
{
	
	// Enable LCD
	LCD_ENABLE;
     f42:	2a 98       	cbi	0x05, 2	; 5
	
	// Set the LCD in command mode
	LCD_COMMAND_MODE;
     f44:	5c 98       	cbi	0x0b, 4	; 11
	
	// Writing to the SPI data register which auto. shifts out data
	SPDR = command_to_send;
     f46:	8e bd       	out	0x2e, r24	; 46
	
	// Wait while the SPIF flag is low
	while(!(SPSR & _BV(SPIF)))
     f48:	0d b4       	in	r0, 0x2d	; 45
     f4a:	07 fe       	sbrs	r0, 7
     f4c:	fd cf       	rjmp	.-6      	; 0xf48 <LCD_send_command+0x6>
	{
		// Do nothing
	}
	SPSR &= ~_BV(SPIF);
     f4e:	8d b5       	in	r24, 0x2d	; 45
     f50:	8f 77       	andi	r24, 0x7F	; 127
     f52:	8d bd       	out	0x2d, r24	; 45
	
		// Disable LCD
	LCD_DISABLE;
     f54:	2a 9a       	sbi	0x05, 2	; 5
     f56:	08 95       	ret

00000f58 <LCD_send_data>:
--------------------------------------------------------------------------------------------------*/

void LCD_send_data(BYTE data_to_send)
{
	// Enable LCD
	LCD_ENABLE;
     f58:	2a 98       	cbi	0x05, 2	; 5
	
	// Set Data Mode
	LCD_DATA_MODE;
     f5a:	5c 9a       	sbi	0x0b, 4	; 11
	
	// Store data to send in SPI data register
	SPDR = data_to_send;
     f5c:	8e bd       	out	0x2e, r24	; 46
	
	// Wait while the SPIF flag is low
	while(!(SPSR & _BV(SPIF)))
     f5e:	0d b4       	in	r0, 0x2d	; 45
     f60:	07 fe       	sbrs	r0, 7
     f62:	fd cf       	rjmp	.-6      	; 0xf5e <LCD_send_data+0x6>
	{
		// Do nothing
	}
	
	// Disable LCD
	LCD_DISABLE;
     f64:	2a 9a       	sbi	0x05, 2	; 5
     f66:	08 95       	ret

00000f68 <LCD_goto>:
	row - row to go to
Return value : None.
--------------------------------------------------------------------------------------------------*/

void LCD_goto(int column, int row)
{
     f68:	cf 93       	push	r28
     f6a:	c6 2f       	mov	r28, r22
	// Set the x address
	LCD_send_command(0x80 | column);
     f6c:	80 68       	ori	r24, 0x80	; 128
     f6e:	0e 94 a1 07 	call	0xf42	; 0xf42 <LCD_send_command>
	
	// Set the y address
	LCD_send_command(0x40 | row);
     f72:	8c 2f       	mov	r24, r28
     f74:	80 64       	ori	r24, 0x40	; 64
     f76:	0e 94 a1 07 	call	0xf42	; 0xf42 <LCD_send_command>
}
     f7a:	cf 91       	pop	r28
     f7c:	08 95       	ret

00000f7e <LCD_clear_screen>:
Argument(s) : None.
Return value : None.
--------------------------------------------------------------------------------------------------*/

void LCD_clear_screen(void)
{
     f7e:	cf 93       	push	r28
     f80:	df 93       	push	r29
     f82:	c8 ef       	ldi	r28, 0xF8	; 248
     f84:	d1 e0       	ldi	r29, 0x01	; 1
	int i;
	
	for(i = 0; i < 504; i++)
	{
		LCD_send_data(0x00);
     f86:	80 e0       	ldi	r24, 0x00	; 0
     f88:	0e 94 ac 07 	call	0xf58	; 0xf58 <LCD_send_data>
     f8c:	21 97       	sbiw	r28, 0x01	; 1

void LCD_clear_screen(void)
{
	int i;
	
	for(i = 0; i < 504; i++)
     f8e:	20 97       	sbiw	r28, 0x00	; 0
     f90:	d1 f7       	brne	.-12     	; 0xf86 <LCD_clear_screen+0x8>
	{
		LCD_send_data(0x00);
	}
	
	// Return to home position
	LCD_goto(0,0);
     f92:	60 e0       	ldi	r22, 0x00	; 0
     f94:	70 e0       	ldi	r23, 0x00	; 0
     f96:	80 e0       	ldi	r24, 0x00	; 0
     f98:	90 e0       	ldi	r25, 0x00	; 0
     f9a:	0e 94 b4 07 	call	0xf68	; 0xf68 <LCD_goto>
}
     f9e:	df 91       	pop	r29
     fa0:	cf 91       	pop	r28
     fa2:	08 95       	ret

00000fa4 <LCD_initialize>:
Return value : None.
--------------------------------------------------------------------------------------------------*/
void LCD_initialize()
{
	// Enabling the LCD
	LCD_ENABLE;
     fa4:	2a 98       	cbi	0x05, 2	; 5
	
	// Set the reset pin (active low) (resetting) 
	LCD_RESET;
     fa6:	28 98       	cbi	0x05, 0	; 5
	
	// Wait for 1 ms
	hw_delay(1);
     fa8:	81 e0       	ldi	r24, 0x01	; 1
     faa:	90 e0       	ldi	r25, 0x00	; 0
     fac:	0e 94 f7 0c 	call	0x19ee	; 0x19ee <hw_delay>
	
	// Set reset pin (active low) (setting)
	LCD_NRESET;
     fb0:	28 9a       	sbi	0x05, 0	; 5
	
	// Clear the screen
	LCD_clear_screen();
     fb2:	0e 94 bf 07 	call	0xf7e	; 0xf7e <LCD_clear_screen>
	
	// Disable the LCD 
	LCD_DISABLE;
     fb6:	2a 9a       	sbi	0x05, 2	; 5
	 *				Setting operation voltage to approx. 7V with Vop = 65
	 *				Mux 1:48
	 */
	
	// Set the display to normal mode
	LCD_send_command(0x0C);
     fb8:	8c e0       	ldi	r24, 0x0C	; 12
     fba:	0e 94 a1 07 	call	0xf42	; 0xf42 <LCD_send_command>
	
	// Set the cursor to (0,0)
	LCD_goto(0,0);
     fbe:	60 e0       	ldi	r22, 0x00	; 0
     fc0:	70 e0       	ldi	r23, 0x00	; 0
     fc2:	80 e0       	ldi	r24, 0x00	; 0
     fc4:	90 e0       	ldi	r25, 0x00	; 0
     fc6:	0e 94 b4 07 	call	0xf68	; 0xf68 <LCD_goto>
	
	// Set LCD in Horizontal addressing mode / Extended instruction mode / Power down disabled mode
	LCD_send_command(0x21);
     fca:	81 e2       	ldi	r24, 0x21	; 33
     fcc:	0e 94 a1 07 	call	0xf42	; 0xf42 <LCD_send_command>
	
	// Set the temperature coefficient to 2 (17 mV/K)
	LCD_send_command(0x07);
     fd0:	87 e0       	ldi	r24, 0x07	; 7
     fd2:	0e 94 a1 07 	call	0xf42	; 0xf42 <LCD_send_command>
	
	// Set operation voltage to approximately 7V
	LCD_send_command(0xA0);
     fd6:	80 ea       	ldi	r24, 0xA0	; 160
     fd8:	0e 94 a1 07 	call	0xf42	; 0xf42 <LCD_send_command>
	
	// Set mux rate 1:48
	//was 0x16
	LCD_send_command(0x16);
     fdc:	86 e1       	ldi	r24, 0x16	; 22
     fde:	0e 94 a1 07 	call	0xf42	; 0xf42 <LCD_send_command>
	
	// Set back into normal instruction mode
	LCD_send_command(0x20);
     fe2:	80 e2       	ldi	r24, 0x20	; 32
     fe4:	0e 94 a1 07 	call	0xf42	; 0xf42 <LCD_send_command>
     fe8:	08 95       	ret

00000fea <LCD_set_y>:
--------------------------------------------------------------------------------------------------*/

void LCD_set_y(int y_to_set)
{
	// Set the y address
	LCD_send_command(0x40 | y_to_set);
     fea:	80 64       	ori	r24, 0x40	; 64
     fec:	0e 94 a1 07 	call	0xf42	; 0xf42 <LCD_send_command>
     ff0:	08 95       	ret

00000ff2 <LCD_print_char>:
Argument(s) : char_to_print
Return value : None.
--------------------------------------------------------------------------------------------------*/

void LCD_print_char(unsigned char char_to_print)
{
     ff2:	0f 93       	push	r16
     ff4:	1f 93       	push	r17
     ff6:	cf 93       	push	r28
     ff8:	df 93       	push	r29
	unsigned char j;
	
	for(j=0; j<5; j++)
	{
		LCD_send_data((pgm_read_byte(&(smallFont [(char_to_print-32)*5 + j])) ));
     ffa:	08 2f       	mov	r16, r24
     ffc:	10 e0       	ldi	r17, 0x00	; 0
     ffe:	00 52       	subi	r16, 0x20	; 32
    1000:	11 09       	sbc	r17, r1
    1002:	c8 01       	movw	r24, r16
    1004:	88 0f       	add	r24, r24
    1006:	99 1f       	adc	r25, r25
    1008:	88 0f       	add	r24, r24
    100a:	99 1f       	adc	r25, r25
    100c:	08 0f       	add	r16, r24
    100e:	19 1f       	adc	r17, r25
    1010:	c0 e0       	ldi	r28, 0x00	; 0
    1012:	d0 e0       	ldi	r29, 0x00	; 0
    1014:	00 58       	subi	r16, 0x80	; 128
    1016:	1e 4f       	sbci	r17, 0xFE	; 254
    1018:	f8 01       	movw	r30, r16
    101a:	ec 0f       	add	r30, r28
    101c:	fd 1f       	adc	r31, r29
    101e:	84 91       	lpm	r24, Z
    1020:	0e 94 ac 07 	call	0xf58	; 0xf58 <LCD_send_data>
    1024:	21 96       	adiw	r28, 0x01	; 1

void LCD_print_char(unsigned char char_to_print)
{
	unsigned char j;
	
	for(j=0; j<5; j++)
    1026:	c5 30       	cpi	r28, 0x05	; 5
    1028:	d1 05       	cpc	r29, r1
    102a:	b1 f7       	brne	.-20     	; 0x1018 <LCD_print_char+0x26>
	{
		LCD_send_data((pgm_read_byte(&(smallFont [(char_to_print-32)*5 + j])) ));
	}
}
    102c:	df 91       	pop	r29
    102e:	cf 91       	pop	r28
    1030:	1f 91       	pop	r17
    1032:	0f 91       	pop	r16
    1034:	08 95       	ret

00001036 <LCD_print_inverted_char>:
Argument(s) : char_to_print - character to print inverted
Return value : None.
--------------------------------------------------------------------------------------------------*/

void LCD_print_inverted_char(unsigned char char_to_print)
{
    1036:	0f 93       	push	r16
    1038:	1f 93       	push	r17
    103a:	cf 93       	push	r28
    103c:	df 93       	push	r29
	unsigned char j;
	
	for(j=0; j<5; j++)
	{
		LCD_send_data(~(pgm_read_byte(&(smallFont [(char_to_print-32)*5 + j])) ));
    103e:	08 2f       	mov	r16, r24
    1040:	10 e0       	ldi	r17, 0x00	; 0
    1042:	00 52       	subi	r16, 0x20	; 32
    1044:	11 09       	sbc	r17, r1
    1046:	c8 01       	movw	r24, r16
    1048:	88 0f       	add	r24, r24
    104a:	99 1f       	adc	r25, r25
    104c:	88 0f       	add	r24, r24
    104e:	99 1f       	adc	r25, r25
    1050:	08 0f       	add	r16, r24
    1052:	19 1f       	adc	r17, r25
    1054:	c0 e0       	ldi	r28, 0x00	; 0
    1056:	d0 e0       	ldi	r29, 0x00	; 0
    1058:	00 58       	subi	r16, 0x80	; 128
    105a:	1e 4f       	sbci	r17, 0xFE	; 254
    105c:	f8 01       	movw	r30, r16
    105e:	ec 0f       	add	r30, r28
    1060:	fd 1f       	adc	r31, r29
    1062:	84 91       	lpm	r24, Z
    1064:	80 95       	com	r24
    1066:	0e 94 ac 07 	call	0xf58	; 0xf58 <LCD_send_data>
    106a:	21 96       	adiw	r28, 0x01	; 1

void LCD_print_inverted_char(unsigned char char_to_print)
{
	unsigned char j;
	
	for(j=0; j<5; j++)
    106c:	c5 30       	cpi	r28, 0x05	; 5
    106e:	d1 05       	cpc	r29, r1
    1070:	a9 f7       	brne	.-22     	; 0x105c <LCD_print_inverted_char+0x26>
	{
		LCD_send_data(~(pgm_read_byte(&(smallFont [(char_to_print-32)*5 + j])) ));
	}
}
    1072:	df 91       	pop	r29
    1074:	cf 91       	pop	r28
    1076:	1f 91       	pop	r17
    1078:	0f 91       	pop	r16
    107a:	08 95       	ret

0000107c <LCD_print_large_number>:
	inverted - (1) print the number inverted (0) print the number normal
Return value : None.
--------------------------------------------------------------------------------------------------*/

void LCD_print_large_number(unsigned int number_to_print, uint8_t x, uint8_t y, uint8_t inverted)
{
    107c:	2f 92       	push	r2
    107e:	3f 92       	push	r3
    1080:	4f 92       	push	r4
    1082:	5f 92       	push	r5
    1084:	6f 92       	push	r6
    1086:	7f 92       	push	r7
    1088:	8f 92       	push	r8
    108a:	9f 92       	push	r9
    108c:	af 92       	push	r10
    108e:	bf 92       	push	r11
    1090:	cf 92       	push	r12
    1092:	df 92       	push	r13
    1094:	ef 92       	push	r14
    1096:	ff 92       	push	r15
    1098:	0f 93       	push	r16
    109a:	1f 93       	push	r17
    109c:	cf 93       	push	r28
    109e:	df 93       	push	r29
    10a0:	00 d0       	rcall	.+0      	; 0x10a2 <LCD_print_large_number+0x26>
    10a2:	1f 92       	push	r1
    10a4:	cd b7       	in	r28, 0x3d	; 61
    10a6:	de b7       	in	r29, 0x3e	; 62
    10a8:	32 2e       	mov	r3, r18
		LCD_goto(x,y+i);
		for(j = 0; j < 10; j++)
		{
			if(inverted)
			{
				LCD_send_data(~pgm_read_byte(&(large_font[20*number_to_print + j + (i*10)])));
    10aa:	24 e1       	ldi	r18, 0x14	; 20
    10ac:	28 9f       	mul	r18, r24
    10ae:	50 01       	movw	r10, r0
    10b0:	29 9f       	mul	r18, r25
    10b2:	b0 0c       	add	r11, r0
    10b4:	11 24       	eor	r1, r1
    10b6:	45 01       	movw	r8, r10
void LCD_print_large_number(unsigned int number_to_print, uint8_t x, uint8_t y, uint8_t inverted)
{
	int i,j;
	
	// Write 41 bytes then a space and increment y and repeat until repeated 6 times
	for(i = 0; i < 2; i++)
    10b8:	c1 2c       	mov	r12, r1
    10ba:	d1 2c       	mov	r13, r1
	{
		LCD_goto(x,y+i);
    10bc:	64 2e       	mov	r6, r20
    10be:	71 2c       	mov	r7, r1
    10c0:	46 2e       	mov	r4, r22
    10c2:	51 2c       	mov	r5, r1
    10c4:	26 2c       	mov	r2, r6
    10c6:	79 82       	std	Y+1, r7	; 0x01
    10c8:	b6 01       	movw	r22, r12
    10ca:	66 0d       	add	r22, r6
    10cc:	77 1d       	adc	r23, r7
    10ce:	c2 01       	movw	r24, r4
    10d0:	0e 94 b4 07 	call	0xf68	; 0xf68 <LCD_goto>
		for(j = 0; j < 10; j++)
    10d4:	1a 82       	std	Y+2, r1	; 0x02
    10d6:	1b 82       	std	Y+3, r1	; 0x03
    10d8:	c5 01       	movw	r24, r10
    10da:	8e 58       	subi	r24, 0x8E	; 142
    10dc:	9f 4f       	sbci	r25, 0xFF	; 255
    10de:	7c 01       	movw	r14, r24
    10e0:	84 01       	movw	r16, r8
    10e2:	0e 58       	subi	r16, 0x8E	; 142
    10e4:	1f 4f       	sbci	r17, 0xFF	; 255
		{
			if(inverted)
    10e6:	33 20       	and	r3, r3
    10e8:	49 f0       	breq	.+18     	; 0x10fc <LCD_print_large_number+0x80>
    10ea:	ea 81       	ldd	r30, Y+2	; 0x02
    10ec:	fb 81       	ldd	r31, Y+3	; 0x03
    10ee:	e0 0f       	add	r30, r16
    10f0:	f1 1f       	adc	r31, r17
			{
				LCD_send_data(~pgm_read_byte(&(large_font[20*number_to_print + j + (i*10)])));
    10f2:	84 91       	lpm	r24, Z
    10f4:	80 95       	com	r24
    10f6:	0e 94 ac 07 	call	0xf58	; 0xf58 <LCD_send_data>
    10fa:	07 c0       	rjmp	.+14     	; 0x110a <LCD_print_large_number+0x8e>
    10fc:	ea 81       	ldd	r30, Y+2	; 0x02
    10fe:	fb 81       	ldd	r31, Y+3	; 0x03
    1100:	ee 0d       	add	r30, r14
    1102:	ff 1d       	adc	r31, r15
			}
			else
			{
				LCD_send_data(pgm_read_byte(&(large_font[20*number_to_print + j + (i*10)])));
    1104:	84 91       	lpm	r24, Z
    1106:	0e 94 ac 07 	call	0xf58	; 0xf58 <LCD_send_data>
	
	// Write 41 bytes then a space and increment y and repeat until repeated 6 times
	for(i = 0; i < 2; i++)
	{
		LCD_goto(x,y+i);
		for(j = 0; j < 10; j++)
    110a:	ea 81       	ldd	r30, Y+2	; 0x02
    110c:	fb 81       	ldd	r31, Y+3	; 0x03
    110e:	31 96       	adiw	r30, 0x01	; 1
    1110:	fb 83       	std	Y+3, r31	; 0x03
    1112:	ea 83       	std	Y+2, r30	; 0x02
    1114:	3a 97       	sbiw	r30, 0x0a	; 10
    1116:	39 f7       	brne	.-50     	; 0x10e6 <LCD_print_large_number+0x6a>
void LCD_print_large_number(unsigned int number_to_print, uint8_t x, uint8_t y, uint8_t inverted)
{
	int i,j;
	
	// Write 41 bytes then a space and increment y and repeat until repeated 6 times
	for(i = 0; i < 2; i++)
    1118:	ff ef       	ldi	r31, 0xFF	; 255
    111a:	cf 1a       	sub	r12, r31
    111c:	df 0a       	sbc	r13, r31
    111e:	8a e0       	ldi	r24, 0x0A	; 10
    1120:	88 0e       	add	r8, r24
    1122:	91 1c       	adc	r9, r1
    1124:	9a e0       	ldi	r25, 0x0A	; 10
    1126:	a9 0e       	add	r10, r25
    1128:	b1 1c       	adc	r11, r1
    112a:	e2 e0       	ldi	r30, 0x02	; 2
    112c:	ce 16       	cp	r12, r30
    112e:	d1 04       	cpc	r13, r1
    1130:	49 f6       	brne	.-110    	; 0x10c4 <LCD_print_large_number+0x48>
				LCD_send_data(pgm_read_byte(&(large_font[20*number_to_print + j + (i*10)])));
			}
			
		}
	}
	LCD_set_y(y);
    1132:	82 2d       	mov	r24, r2
    1134:	99 81       	ldd	r25, Y+1	; 0x01
    1136:	0e 94 f5 07 	call	0xfea	; 0xfea <LCD_set_y>
}
    113a:	0f 90       	pop	r0
    113c:	0f 90       	pop	r0
    113e:	0f 90       	pop	r0
    1140:	df 91       	pop	r29
    1142:	cf 91       	pop	r28
    1144:	1f 91       	pop	r17
    1146:	0f 91       	pop	r16
    1148:	ff 90       	pop	r15
    114a:	ef 90       	pop	r14
    114c:	df 90       	pop	r13
    114e:	cf 90       	pop	r12
    1150:	bf 90       	pop	r11
    1152:	af 90       	pop	r10
    1154:	9f 90       	pop	r9
    1156:	8f 90       	pop	r8
    1158:	7f 90       	pop	r7
    115a:	6f 90       	pop	r6
    115c:	5f 90       	pop	r5
    115e:	4f 90       	pop	r4
    1160:	3f 90       	pop	r3
    1162:	2f 90       	pop	r2
    1164:	08 95       	ret

00001166 <LCD_print_double_number>:
Argument(s) : number_to_print - number from 0-99 to print
Return value : None.
--------------------------------------------------------------------------------------------------*/

void LCD_print_double_number(int number_to_print)
{
    1166:	8f 92       	push	r8
    1168:	9f 92       	push	r9
    116a:	af 92       	push	r10
    116c:	bf 92       	push	r11
    116e:	cf 92       	push	r12
    1170:	df 92       	push	r13
    1172:	ef 92       	push	r14
    1174:	ff 92       	push	r15
    1176:	0f 93       	push	r16
    1178:	1f 93       	push	r17
    117a:	cf 93       	push	r28
    117c:	df 93       	push	r29
    117e:	4c 01       	movw	r8, r24
	unsigned char j;
	int temp;
	
	temp = number_to_print / 10;
    1180:	6a e0       	ldi	r22, 0x0A	; 10
    1182:	70 e0       	ldi	r23, 0x00	; 0
    1184:	0e 94 7f 0d 	call	0x1afe	; 0x1afe <__divmodhi4>
    1188:	5b 01       	movw	r10, r22
	
	for(j=0; j<5; j++)
	{
		LCD_send_data((pgm_read_byte(&(single_numbers [5*temp + j]))));
    118a:	6b 01       	movw	r12, r22
    118c:	cc 0c       	add	r12, r12
    118e:	dd 1c       	adc	r13, r13
    1190:	cc 0c       	add	r12, r12
    1192:	dd 1c       	adc	r13, r13
    1194:	c6 01       	movw	r24, r12
    1196:	86 0f       	add	r24, r22
    1198:	97 1f       	adc	r25, r23
    119a:	c0 e0       	ldi	r28, 0x00	; 0
    119c:	d0 e0       	ldi	r29, 0x00	; 0
    119e:	0f 2e       	mov	r0, r31
    11a0:	fe e4       	ldi	r31, 0x4E	; 78
    11a2:	ef 2e       	mov	r14, r31
    11a4:	f1 e0       	ldi	r31, 0x01	; 1
    11a6:	ff 2e       	mov	r15, r31
    11a8:	f0 2d       	mov	r31, r0
    11aa:	9c 01       	movw	r18, r24
    11ac:	22 5b       	subi	r18, 0xB2	; 178
    11ae:	3e 4f       	sbci	r19, 0xFE	; 254
    11b0:	69 01       	movw	r12, r18
    11b2:	87 01       	movw	r16, r14
    11b4:	f6 01       	movw	r30, r12
    11b6:	ec 0f       	add	r30, r28
    11b8:	fd 1f       	adc	r31, r29
    11ba:	84 91       	lpm	r24, Z
    11bc:	0e 94 ac 07 	call	0xf58	; 0xf58 <LCD_send_data>
    11c0:	21 96       	adiw	r28, 0x01	; 1
	unsigned char j;
	int temp;
	
	temp = number_to_print / 10;
	
	for(j=0; j<5; j++)
    11c2:	c5 30       	cpi	r28, 0x05	; 5
    11c4:	d1 05       	cpc	r29, r1
    11c6:	a9 f7       	brne	.-22     	; 0x11b2 <LCD_print_double_number+0x4c>
	{
		LCD_send_data((pgm_read_byte(&(single_numbers [5*temp + j]))));
	}
	
	temp = number_to_print - temp*10;
    11c8:	26 ef       	ldi	r18, 0xF6	; 246
    11ca:	a5 01       	movw	r20, r10
    11cc:	24 03       	mulsu	r18, r20
    11ce:	c0 01       	movw	r24, r0
    11d0:	25 9f       	mul	r18, r21
    11d2:	90 0d       	add	r25, r0
    11d4:	11 24       	eor	r1, r1
    11d6:	88 0e       	add	r8, r24
    11d8:	99 1e       	adc	r9, r25
	
	for(j=0; j<5; j++)
	{
		LCD_send_data((pgm_read_byte(&(single_numbers [5*temp + j]))));
    11da:	c4 01       	movw	r24, r8
    11dc:	88 0f       	add	r24, r24
    11de:	99 1f       	adc	r25, r25
    11e0:	88 0f       	add	r24, r24
    11e2:	99 1f       	adc	r25, r25
    11e4:	88 0e       	add	r8, r24
    11e6:	99 1e       	adc	r9, r25
    11e8:	c0 e0       	ldi	r28, 0x00	; 0
    11ea:	d0 e0       	ldi	r29, 0x00	; 0
    11ec:	08 0d       	add	r16, r8
    11ee:	19 1d       	adc	r17, r9
    11f0:	f8 01       	movw	r30, r16
    11f2:	ec 0f       	add	r30, r28
    11f4:	fd 1f       	adc	r31, r29
    11f6:	84 91       	lpm	r24, Z
    11f8:	0e 94 ac 07 	call	0xf58	; 0xf58 <LCD_send_data>
    11fc:	21 96       	adiw	r28, 0x01	; 1
		LCD_send_data((pgm_read_byte(&(single_numbers [5*temp + j]))));
	}
	
	temp = number_to_print - temp*10;
	
	for(j=0; j<5; j++)
    11fe:	c5 30       	cpi	r28, 0x05	; 5
    1200:	d1 05       	cpc	r29, r1
    1202:	b1 f7       	brne	.-20     	; 0x11f0 <LCD_print_double_number+0x8a>
	{
		LCD_send_data((pgm_read_byte(&(single_numbers [5*temp + j]))));
	}
	
}
    1204:	df 91       	pop	r29
    1206:	cf 91       	pop	r28
    1208:	1f 91       	pop	r17
    120a:	0f 91       	pop	r16
    120c:	ff 90       	pop	r15
    120e:	ef 90       	pop	r14
    1210:	df 90       	pop	r13
    1212:	cf 90       	pop	r12
    1214:	bf 90       	pop	r11
    1216:	af 90       	pop	r10
    1218:	9f 90       	pop	r9
    121a:	8f 90       	pop	r8
    121c:	08 95       	ret

0000121e <LCD_print_largedouble_number>:
	inverted - (1) print number inverted (0) print number normal
Return value : None.
--------------------------------------------------------------------------------------------------*/

void LCD_print_largedouble_number(int number_to_print, int x, int y, uint8_t hours, uint8_t inverted)
{
    121e:	bf 92       	push	r11
    1220:	cf 92       	push	r12
    1222:	df 92       	push	r13
    1224:	ef 92       	push	r14
    1226:	ff 92       	push	r15
    1228:	0f 93       	push	r16
    122a:	1f 93       	push	r17
    122c:	cf 93       	push	r28
    122e:	df 93       	push	r29
    1230:	d6 2e       	mov	r13, r22
    1232:	c7 2e       	mov	r12, r23
    1234:	14 2f       	mov	r17, r20
    1236:	b5 2e       	mov	r11, r21
	int temp1;
	int temp2;
	
	temp1 = number_to_print / 10;
    1238:	6a e0       	ldi	r22, 0x0A	; 10
    123a:	70 e0       	ldi	r23, 0x00	; 0
    123c:	0e 94 7f 0d 	call	0x1afe	; 0x1afe <__divmodhi4>
    1240:	eb 01       	movw	r28, r22
    1242:	7c 01       	movw	r14, r24
	temp2 = number_to_print % 10;
	//print hours if less than 10
	if((temp1 == 0) && hours)
    1244:	20 97       	sbiw	r28, 0x00	; 0
    1246:	69 f5       	brne	.+90     	; 0x12a2 <LCD_print_largedouble_number+0x84>
    1248:	22 23       	and	r18, r18
    124a:	59 f1       	breq	.+86     	; 0x12a2 <LCD_print_largedouble_number+0x84>
	{
		LCD_goto(x,y);
    124c:	64 2f       	mov	r22, r20
    124e:	7b 2d       	mov	r23, r11
    1250:	8d 2d       	mov	r24, r13
    1252:	9c 2d       	mov	r25, r12
    1254:	0e 94 b4 07 	call	0xf68	; 0xf68 <LCD_goto>
		//print space first if number is less than 10
		LCD_print_large_number(10, x, y, NOTINVERTED);
    1258:	20 e0       	ldi	r18, 0x00	; 0
    125a:	41 2f       	mov	r20, r17
    125c:	6d 2d       	mov	r22, r13
    125e:	8a e0       	ldi	r24, 0x0A	; 10
    1260:	90 e0       	ldi	r25, 0x00	; 0
    1262:	0e 94 3e 08 	call	0x107c	; 0x107c <LCD_print_large_number>
		if(inverted)
    1266:	00 23       	and	r16, r16
    1268:	71 f0       	breq	.+28     	; 0x1286 <LCD_print_largedouble_number+0x68>
		{
			LCD_goto(x,y);
    126a:	61 2f       	mov	r22, r17
    126c:	7b 2d       	mov	r23, r11
    126e:	8d 2d       	mov	r24, r13
    1270:	9c 2d       	mov	r25, r12
    1272:	0e 94 b4 07 	call	0xf68	; 0xf68 <LCD_goto>
			LCD_print_large_number(temp2, x+10,y, INVERTED);
    1276:	6a e0       	ldi	r22, 0x0A	; 10
    1278:	6d 0d       	add	r22, r13
    127a:	21 e0       	ldi	r18, 0x01	; 1
    127c:	41 2f       	mov	r20, r17
    127e:	c7 01       	movw	r24, r14
    1280:	0e 94 3e 08 	call	0x107c	; 0x107c <LCD_print_large_number>
    1284:	43 c0       	rjmp	.+134    	; 0x130c <LCD_print_largedouble_number+0xee>
		} 
		else
		{
			LCD_goto(x,y);
    1286:	61 2f       	mov	r22, r17
    1288:	7b 2d       	mov	r23, r11
    128a:	8d 2d       	mov	r24, r13
    128c:	9c 2d       	mov	r25, r12
    128e:	0e 94 b4 07 	call	0xf68	; 0xf68 <LCD_goto>
			LCD_print_large_number(temp2, x+10,y, NOTINVERTED);
    1292:	6a e0       	ldi	r22, 0x0A	; 10
    1294:	6d 0d       	add	r22, r13
    1296:	20 e0       	ldi	r18, 0x00	; 0
    1298:	41 2f       	mov	r20, r17
    129a:	c7 01       	movw	r24, r14
    129c:	0e 94 3e 08 	call	0x107c	; 0x107c <LCD_print_large_number>
    12a0:	35 c0       	rjmp	.+106    	; 0x130c <LCD_print_largedouble_number+0xee>
		}
	}
	//print two numbers (number > 9)
	else
	{
		if(inverted)
    12a2:	00 23       	and	r16, r16
    12a4:	d1 f0       	breq	.+52     	; 0x12da <LCD_print_largedouble_number+0xbc>
		{
			LCD_goto(x,y);
    12a6:	61 2f       	mov	r22, r17
    12a8:	7b 2d       	mov	r23, r11
    12aa:	8d 2d       	mov	r24, r13
    12ac:	9c 2d       	mov	r25, r12
    12ae:	0e 94 b4 07 	call	0xf68	; 0xf68 <LCD_goto>
			LCD_print_large_number(temp1, x, y, INVERTED);
    12b2:	21 e0       	ldi	r18, 0x01	; 1
    12b4:	41 2f       	mov	r20, r17
    12b6:	6d 2d       	mov	r22, r13
    12b8:	ce 01       	movw	r24, r28
    12ba:	0e 94 3e 08 	call	0x107c	; 0x107c <LCD_print_large_number>
			LCD_goto(x,y);
    12be:	61 2f       	mov	r22, r17
    12c0:	7b 2d       	mov	r23, r11
    12c2:	8d 2d       	mov	r24, r13
    12c4:	9c 2d       	mov	r25, r12
    12c6:	0e 94 b4 07 	call	0xf68	; 0xf68 <LCD_goto>
			LCD_print_large_number(temp2, x+10,y, INVERTED);
    12ca:	6a e0       	ldi	r22, 0x0A	; 10
    12cc:	6d 0d       	add	r22, r13
    12ce:	21 e0       	ldi	r18, 0x01	; 1
    12d0:	41 2f       	mov	r20, r17
    12d2:	c7 01       	movw	r24, r14
    12d4:	0e 94 3e 08 	call	0x107c	; 0x107c <LCD_print_large_number>
    12d8:	19 c0       	rjmp	.+50     	; 0x130c <LCD_print_largedouble_number+0xee>
		}
		else
		{
			LCD_goto(x,y);
    12da:	61 2f       	mov	r22, r17
    12dc:	7b 2d       	mov	r23, r11
    12de:	8d 2d       	mov	r24, r13
    12e0:	9c 2d       	mov	r25, r12
    12e2:	0e 94 b4 07 	call	0xf68	; 0xf68 <LCD_goto>
			LCD_print_large_number(temp1, x, y, NOTINVERTED);
    12e6:	20 e0       	ldi	r18, 0x00	; 0
    12e8:	41 2f       	mov	r20, r17
    12ea:	6d 2d       	mov	r22, r13
    12ec:	ce 01       	movw	r24, r28
    12ee:	0e 94 3e 08 	call	0x107c	; 0x107c <LCD_print_large_number>
			LCD_goto(x,y);
    12f2:	61 2f       	mov	r22, r17
    12f4:	7b 2d       	mov	r23, r11
    12f6:	8d 2d       	mov	r24, r13
    12f8:	9c 2d       	mov	r25, r12
    12fa:	0e 94 b4 07 	call	0xf68	; 0xf68 <LCD_goto>
			LCD_print_large_number(temp2, x+10,y, NOTINVERTED);
    12fe:	6a e0       	ldi	r22, 0x0A	; 10
    1300:	6d 0d       	add	r22, r13
    1302:	20 e0       	ldi	r18, 0x00	; 0
    1304:	41 2f       	mov	r20, r17
    1306:	c7 01       	movw	r24, r14
    1308:	0e 94 3e 08 	call	0x107c	; 0x107c <LCD_print_large_number>
		}
		
	}
	
}
    130c:	df 91       	pop	r29
    130e:	cf 91       	pop	r28
    1310:	1f 91       	pop	r17
    1312:	0f 91       	pop	r16
    1314:	ff 90       	pop	r15
    1316:	ef 90       	pop	r14
    1318:	df 90       	pop	r13
    131a:	cf 90       	pop	r12
    131c:	bf 90       	pop	r11
    131e:	08 95       	ret

00001320 <LCD_print_large_colon>:
	x - x-position of colon
	y - y-position of colon
Return value : None.
--------------------------------------------------------------------------------------------------*/

void LCD_print_large_colon(uint8_t x, uint8_t y){
    1320:	cf 92       	push	r12
    1322:	df 92       	push	r13
    1324:	ef 92       	push	r14
    1326:	ff 92       	push	r15
    1328:	0f 93       	push	r16
    132a:	1f 93       	push	r17
    132c:	cf 93       	push	r28
    132e:	df 93       	push	r29
	int i,j;
	
	// Write 41 bytes then a space and increment y and repeat until repeated 6 times
	for(i = 0; i < 2; i++)
	{
		LCD_goto(x,y+i);
    1330:	e6 2e       	mov	r14, r22
    1332:	f1 2c       	mov	r15, r1
    1334:	c8 2e       	mov	r12, r24
    1336:	d1 2c       	mov	r13, r1
    1338:	b7 01       	movw	r22, r14
    133a:	c6 01       	movw	r24, r12
    133c:	0e 94 b4 07 	call	0xf68	; 0xf68 <LCD_goto>
    1340:	02 e7       	ldi	r16, 0x72	; 114
    1342:	10 e0       	ldi	r17, 0x00	; 0
    1344:	c8 e6       	ldi	r28, 0x68	; 104
    1346:	d0 e0       	ldi	r29, 0x00	; 0
		for(j = 0; j < 10; j++)
		{
			LCD_send_data(pgm_read_byte(&(large_colon[j + (i*5)])));
    1348:	fe 01       	movw	r30, r28
    134a:	84 91       	lpm	r24, Z
    134c:	0e 94 ac 07 	call	0xf58	; 0xf58 <LCD_send_data>
    1350:	21 96       	adiw	r28, 0x01	; 1
	
	// Write 41 bytes then a space and increment y and repeat until repeated 6 times
	for(i = 0; i < 2; i++)
	{
		LCD_goto(x,y+i);
		for(j = 0; j < 10; j++)
    1352:	c0 17       	cp	r28, r16
    1354:	d1 07       	cpc	r29, r17
    1356:	c1 f7       	brne	.-16     	; 0x1348 <LCD_print_large_colon+0x28>
	int i,j;
	
	// Write 41 bytes then a space and increment y and repeat until repeated 6 times
	for(i = 0; i < 2; i++)
	{
		LCD_goto(x,y+i);
    1358:	b7 01       	movw	r22, r14
    135a:	6f 5f       	subi	r22, 0xFF	; 255
    135c:	7f 4f       	sbci	r23, 0xFF	; 255
    135e:	c6 01       	movw	r24, r12
    1360:	0e 94 b4 07 	call	0xf68	; 0xf68 <LCD_goto>
		for(j = 0; j < 10; j++)
    1364:	c0 e0       	ldi	r28, 0x00	; 0
    1366:	d0 e0       	ldi	r29, 0x00	; 0
    1368:	08 e6       	ldi	r16, 0x68	; 104
    136a:	10 e0       	ldi	r17, 0x00	; 0
    136c:	0b 5f       	subi	r16, 0xFB	; 251
    136e:	1f 4f       	sbci	r17, 0xFF	; 255
    1370:	f8 01       	movw	r30, r16
    1372:	ec 0f       	add	r30, r28
    1374:	fd 1f       	adc	r31, r29
		{
			LCD_send_data(pgm_read_byte(&(large_colon[j + (i*5)])));
    1376:	84 91       	lpm	r24, Z
    1378:	0e 94 ac 07 	call	0xf58	; 0xf58 <LCD_send_data>
	
	// Write 41 bytes then a space and increment y and repeat until repeated 6 times
	for(i = 0; i < 2; i++)
	{
		LCD_goto(x,y+i);
		for(j = 0; j < 10; j++)
    137c:	21 96       	adiw	r28, 0x01	; 1
    137e:	ca 30       	cpi	r28, 0x0A	; 10
    1380:	d1 05       	cpc	r29, r1
    1382:	b1 f7       	brne	.-20     	; 0x1370 <LCD_print_large_colon+0x50>
		{
			LCD_send_data(pgm_read_byte(&(large_colon[j + (i*5)])));
		}
	}
	LCD_set_y(y);
    1384:	c7 01       	movw	r24, r14
    1386:	0e 94 f5 07 	call	0xfea	; 0xfea <LCD_set_y>
}
    138a:	df 91       	pop	r29
    138c:	cf 91       	pop	r28
    138e:	1f 91       	pop	r17
    1390:	0f 91       	pop	r16
    1392:	ff 90       	pop	r15
    1394:	ef 90       	pop	r14
    1396:	df 90       	pop	r13
    1398:	cf 90       	pop	r12
    139a:	08 95       	ret

0000139c <LCD_print_string>:
	inverted - (1) print inverted string (0) print normal string
Return value : None.
--------------------------------------------------------------------------------------------------*/

void LCD_print_string(const char *string, BYTE inverted)
{
    139c:	cf 93       	push	r28
    139e:	df 93       	push	r29
    13a0:	ec 01       	movw	r28, r24
	// Prints character of current index of string until string ends
	if(inverted){
    13a2:	61 11       	cpse	r22, r1
    13a4:	04 c0       	rjmp	.+8      	; 0x13ae <LCD_print_string+0x12>
			// Prints character of current index of string
			LCD_print_inverted_char( *string++ );
		}
	}
	else{
		while ( *string )
    13a6:	88 81       	ld	r24, Y
    13a8:	81 11       	cpse	r24, r1
    13aa:	0b c0       	rjmp	.+22     	; 0x13c2 <LCD_print_string+0x26>
    13ac:	10 c0       	rjmp	.+32     	; 0x13ce <LCD_print_string+0x32>

void LCD_print_string(const char *string, BYTE inverted)
{
	// Prints character of current index of string until string ends
	if(inverted){
		while ( *string )
    13ae:	88 81       	ld	r24, Y
    13b0:	88 23       	and	r24, r24
    13b2:	69 f0       	breq	.+26     	; 0x13ce <LCD_print_string+0x32>
    13b4:	21 96       	adiw	r28, 0x01	; 1
		{
			// Prints character of current index of string
			LCD_print_inverted_char( *string++ );
    13b6:	0e 94 1b 08 	call	0x1036	; 0x1036 <LCD_print_inverted_char>

void LCD_print_string(const char *string, BYTE inverted)
{
	// Prints character of current index of string until string ends
	if(inverted){
		while ( *string )
    13ba:	89 91       	ld	r24, Y+
    13bc:	81 11       	cpse	r24, r1
    13be:	fb cf       	rjmp	.-10     	; 0x13b6 <LCD_print_string+0x1a>
    13c0:	06 c0       	rjmp	.+12     	; 0x13ce <LCD_print_string+0x32>
    13c2:	21 96       	adiw	r28, 0x01	; 1
	}
	else{
		while ( *string )
		{
			// Prints character of current index of string
			LCD_print_char( *string++ );
    13c4:	0e 94 f9 07 	call	0xff2	; 0xff2 <LCD_print_char>
			// Prints character of current index of string
			LCD_print_inverted_char( *string++ );
		}
	}
	else{
		while ( *string )
    13c8:	89 91       	ld	r24, Y+
    13ca:	81 11       	cpse	r24, r1
    13cc:	fb cf       	rjmp	.-10     	; 0x13c4 <LCD_print_string+0x28>
			// Prints character of current index of string
			LCD_print_char( *string++ );
		}
	}
	
}
    13ce:	df 91       	pop	r29
    13d0:	cf 91       	pop	r28
    13d2:	08 95       	ret

000013d4 <LCD_print_bottom_menu>:
	*button3 - pointer to button3 label
Return value : None.
--------------------------------------------------------------------------------------------------*/

void LCD_print_bottom_menu(const char *button1, const char *button2, const char *button3)
{
    13d4:	cf 92       	push	r12
    13d6:	df 92       	push	r13
    13d8:	ef 92       	push	r14
    13da:	ff 92       	push	r15
    13dc:	0f 93       	push	r16
    13de:	1f 93       	push	r17
    13e0:	cf 93       	push	r28
    13e2:	df 93       	push	r29
    13e4:	ec 01       	movw	r28, r24
    13e6:	6b 01       	movw	r12, r22
    13e8:	7a 01       	movw	r14, r20
	int tot_string_length, temp_calc, max_space, i;
	
	//Finding total number of characters
	tot_string_length = strlen(button1) + strlen(button2) + strlen(button3);
    13ea:	dc 01       	movw	r26, r24
    13ec:	0d 90       	ld	r0, X+
    13ee:	00 20       	and	r0, r0
    13f0:	e9 f7       	brne	.-6      	; 0x13ec <LCD_print_bottom_menu+0x18>
    13f2:	11 97       	sbiw	r26, 0x01	; 1
    13f4:	cd 01       	movw	r24, r26
    13f6:	8c 1b       	sub	r24, r28
    13f8:	9d 0b       	sbc	r25, r29
    13fa:	db 01       	movw	r26, r22
    13fc:	0d 90       	ld	r0, X+
    13fe:	00 20       	and	r0, r0
    1400:	e9 f7       	brne	.-6      	; 0x13fc <LCD_print_bottom_menu+0x28>
    1402:	11 97       	sbiw	r26, 0x01	; 1
    1404:	a6 1b       	sub	r26, r22
    1406:	b7 0b       	sbc	r27, r23
    1408:	fa 01       	movw	r30, r20
    140a:	01 90       	ld	r0, Z+
    140c:	00 20       	and	r0, r0
    140e:	e9 f7       	brne	.-6      	; 0x140a <LCD_print_bottom_menu+0x36>
    1410:	31 97       	sbiw	r30, 0x01	; 1
    1412:	e4 1b       	sub	r30, r20
    1414:	f5 0b       	sbc	r31, r21
    1416:	a8 0f       	add	r26, r24
    1418:	b9 1f       	adc	r27, r25
    141a:	ea 0f       	add	r30, r26
    141c:	fb 1f       	adc	r31, r27
	
	temp_calc = 16 - (tot_string_length);
    141e:	80 e1       	ldi	r24, 0x10	; 16
    1420:	90 e0       	ldi	r25, 0x00	; 0
    1422:	8e 1b       	sub	r24, r30
    1424:	9f 0b       	sbc	r25, r31
	
	max_space = temp_calc / 2;
    1426:	8c 01       	movw	r16, r24
    1428:	12 f4       	brpl	.+4      	; 0x142e <LCD_print_bottom_menu+0x5a>
    142a:	0f 5f       	subi	r16, 0xFF	; 255
    142c:	1f 4f       	sbci	r17, 0xFF	; 255
    142e:	15 95       	asr	r17
    1430:	07 95       	ror	r16
	
	// Set cursor to bottom left
	LCD_goto(0,5);
    1432:	65 e0       	ldi	r22, 0x05	; 5
    1434:	70 e0       	ldi	r23, 0x00	; 0
    1436:	80 e0       	ldi	r24, 0x00	; 0
    1438:	90 e0       	ldi	r25, 0x00	; 0
    143a:	0e 94 b4 07 	call	0xf68	; 0xf68 <LCD_goto>
	
	// print first button command heading
	LCD_print_string(button1,0);
    143e:	60 e0       	ldi	r22, 0x00	; 0
    1440:	ce 01       	movw	r24, r28
    1442:	0e 94 ce 09 	call	0x139c	; 0x139c <LCD_print_string>
	
	for(i = 0; i < max_space; i++)
    1446:	10 16       	cp	r1, r16
    1448:	11 06       	cpc	r1, r17
    144a:	ec f4       	brge	.+58     	; 0x1486 <LCD_print_bottom_menu+0xb2>
    144c:	c0 e0       	ldi	r28, 0x00	; 0
    144e:	d0 e0       	ldi	r29, 0x00	; 0
	{
		// print a space after the first command
		LCD_print_char(' ');
    1450:	80 e2       	ldi	r24, 0x20	; 32
    1452:	0e 94 f9 07 	call	0xff2	; 0xff2 <LCD_print_char>
	LCD_goto(0,5);
	
	// print first button command heading
	LCD_print_string(button1,0);
	
	for(i = 0; i < max_space; i++)
    1456:	21 96       	adiw	r28, 0x01	; 1
    1458:	c0 17       	cp	r28, r16
    145a:	d1 07       	cpc	r29, r17
    145c:	c9 f7       	brne	.-14     	; 0x1450 <LCD_print_bottom_menu+0x7c>
    145e:	0c c0       	rjmp	.+24     	; 0x1478 <LCD_print_bottom_menu+0xa4>
	LCD_print_string(button2,0);
	
	for(i = 0; i < max_space; i++)
	{
		// print a space after the first command
		LCD_print_char(' ');
    1460:	80 e2       	ldi	r24, 0x20	; 32
    1462:	0e 94 f9 07 	call	0xff2	; 0xff2 <LCD_print_char>
	}
	
	// print second button command heading
	LCD_print_string(button2,0);
	
	for(i = 0; i < max_space; i++)
    1466:	21 96       	adiw	r28, 0x01	; 1
    1468:	c0 17       	cp	r28, r16
    146a:	d1 07       	cpc	r29, r17
    146c:	c9 f7       	brne	.-14     	; 0x1460 <LCD_print_bottom_menu+0x8c>
	{
		// print a space after the first command
		LCD_print_char(' ');
	}
	// print third button command heading
	LCD_print_string(button3,0);
    146e:	60 e0       	ldi	r22, 0x00	; 0
    1470:	c7 01       	movw	r24, r14
    1472:	0e 94 ce 09 	call	0x139c	; 0x139c <LCD_print_string>
    1476:	0c c0       	rjmp	.+24     	; 0x1490 <LCD_print_bottom_menu+0xbc>
		// print a space after the first command
		LCD_print_char(' ');
	}
	
	// print second button command heading
	LCD_print_string(button2,0);
    1478:	60 e0       	ldi	r22, 0x00	; 0
    147a:	c6 01       	movw	r24, r12
    147c:	0e 94 ce 09 	call	0x139c	; 0x139c <LCD_print_string>
	
	for(i = 0; i < max_space; i++)
    1480:	c0 e0       	ldi	r28, 0x00	; 0
    1482:	d0 e0       	ldi	r29, 0x00	; 0
    1484:	ed cf       	rjmp	.-38     	; 0x1460 <LCD_print_bottom_menu+0x8c>
		// print a space after the first command
		LCD_print_char(' ');
	}
	
	// print second button command heading
	LCD_print_string(button2,0);
    1486:	60 e0       	ldi	r22, 0x00	; 0
    1488:	c6 01       	movw	r24, r12
    148a:	0e 94 ce 09 	call	0x139c	; 0x139c <LCD_print_string>
    148e:	ef cf       	rjmp	.-34     	; 0x146e <LCD_print_bottom_menu+0x9a>
		// print a space after the first command
		LCD_print_char(' ');
	}
	// print third button command heading
	LCD_print_string(button3,0);
}
    1490:	df 91       	pop	r29
    1492:	cf 91       	pop	r28
    1494:	1f 91       	pop	r17
    1496:	0f 91       	pop	r16
    1498:	ff 90       	pop	r15
    149a:	ef 90       	pop	r14
    149c:	df 90       	pop	r13
    149e:	cf 90       	pop	r12
    14a0:	08 95       	ret

000014a2 <LCD_print_time_display>:
	*a2 - pointer to string for alarm2 on/off
Return value : None.
--------------------------------------------------------------------------------------------------*/

void LCD_print_time_display(time_t current_time, int current_temperature, char *button1, char *button2, char *a1, char *a2 )
{
    14a2:	8f 92       	push	r8
    14a4:	9f 92       	push	r9
    14a6:	af 92       	push	r10
    14a8:	bf 92       	push	r11
    14aa:	cf 92       	push	r12
    14ac:	df 92       	push	r13
    14ae:	ef 92       	push	r14
    14b0:	ff 92       	push	r15
    14b2:	0f 93       	push	r16
    14b4:	1f 93       	push	r17
    14b6:	cf 93       	push	r28
    14b8:	df 93       	push	r29
    14ba:	cd b7       	in	r28, 0x3d	; 61
    14bc:	de b7       	in	r29, 0x3e	; 62
    14be:	28 97       	sbiw	r28, 0x08	; 8
    14c0:	0f b6       	in	r0, 0x3f	; 63
    14c2:	f8 94       	cli
    14c4:	de bf       	out	0x3e, r29	; 62
    14c6:	0f be       	out	0x3f, r0	; 63
    14c8:	cd bf       	out	0x3d, r28	; 61
    14ca:	29 83       	std	Y+1, r18	; 0x01
    14cc:	3a 83       	std	Y+2, r19	; 0x02
    14ce:	4b 83       	std	Y+3, r20	; 0x03
    14d0:	6d 83       	std	Y+5, r22	; 0x05
    14d2:	7e 83       	std	Y+6, r23	; 0x06
    14d4:	8f 83       	std	Y+7, r24	; 0x07
    14d6:	98 87       	std	Y+8, r25	; 0x08
	// Example of Time display
	// Printing time portion
	LCD_goto(0,0);
    14d8:	60 e0       	ldi	r22, 0x00	; 0
    14da:	70 e0       	ldi	r23, 0x00	; 0
    14dc:	80 e0       	ldi	r24, 0x00	; 0
    14de:	90 e0       	ldi	r25, 0x00	; 0
    14e0:	0e 94 b4 07 	call	0xf68	; 0xf68 <LCD_goto>
	LCD_print_double_number(current_time.hour);
    14e4:	8d 81       	ldd	r24, Y+5	; 0x05
    14e6:	90 e0       	ldi	r25, 0x00	; 0
    14e8:	0e 94 b3 08 	call	0x1166	; 0x1166 <LCD_print_double_number>
	LCD_print_char(':');
    14ec:	8a e3       	ldi	r24, 0x3A	; 58
    14ee:	0e 94 f9 07 	call	0xff2	; 0xff2 <LCD_print_char>
	LCD_print_double_number(current_time.minute);
    14f2:	8e 81       	ldd	r24, Y+6	; 0x06
    14f4:	90 e0       	ldi	r25, 0x00	; 0
    14f6:	0e 94 b3 08 	call	0x1166	; 0x1166 <LCD_print_double_number>
	LCD_print_char(':');
    14fa:	8a e3       	ldi	r24, 0x3A	; 58
    14fc:	0e 94 f9 07 	call	0xff2	; 0xff2 <LCD_print_char>
	LCD_print_double_number(current_time.second);
    1500:	8f 81       	ldd	r24, Y+7	; 0x07
    1502:	90 e0       	ldi	r25, 0x00	; 0
    1504:	0e 94 b3 08 	call	0x1166	; 0x1166 <LCD_print_double_number>
	LCD_print_char(' ');
    1508:	80 e2       	ldi	r24, 0x20	; 32
    150a:	0e 94 f9 07 	call	0xff2	; 0xff2 <LCD_print_char>
	if(current_time.AM_PM)
    150e:	88 85       	ldd	r24, Y+8	; 0x08
    1510:	88 23       	and	r24, r24
    1512:	31 f0       	breq	.+12     	; 0x1520 <LCD_print_time_display+0x7e>
	{
		LCD_print_string("PM",0);
    1514:	60 e0       	ldi	r22, 0x00	; 0
    1516:	83 e3       	ldi	r24, 0x33	; 51
    1518:	91 e0       	ldi	r25, 0x01	; 1
    151a:	0e 94 ce 09 	call	0x139c	; 0x139c <LCD_print_string>
    151e:	05 c0       	rjmp	.+10     	; 0x152a <LCD_print_time_display+0x88>
	}
	else
	{
		LCD_print_string("AM",0);
    1520:	60 e0       	ldi	r22, 0x00	; 0
    1522:	86 e3       	ldi	r24, 0x36	; 54
    1524:	91 e0       	ldi	r25, 0x01	; 1
    1526:	0e 94 ce 09 	call	0x139c	; 0x139c <LCD_print_string>
	}
	
	// Printing date portion
	LCD_goto(0,2);
    152a:	62 e0       	ldi	r22, 0x02	; 2
    152c:	70 e0       	ldi	r23, 0x00	; 0
    152e:	80 e0       	ldi	r24, 0x00	; 0
    1530:	90 e0       	ldi	r25, 0x00	; 0
    1532:	0e 94 b4 07 	call	0xf68	; 0xf68 <LCD_goto>
	LCD_print_double_number(current_time.month);
    1536:	8a 81       	ldd	r24, Y+2	; 0x02
    1538:	90 e0       	ldi	r25, 0x00	; 0
    153a:	0e 94 b3 08 	call	0x1166	; 0x1166 <LCD_print_double_number>
	LCD_print_char('/');
    153e:	8f e2       	ldi	r24, 0x2F	; 47
    1540:	0e 94 f9 07 	call	0xff2	; 0xff2 <LCD_print_char>
	LCD_print_double_number(current_time.day);
    1544:	8b 81       	ldd	r24, Y+3	; 0x03
    1546:	90 e0       	ldi	r25, 0x00	; 0
    1548:	0e 94 b3 08 	call	0x1166	; 0x1166 <LCD_print_double_number>
	LCD_print_char('/');
    154c:	8f e2       	ldi	r24, 0x2F	; 47
    154e:	0e 94 f9 07 	call	0xff2	; 0xff2 <LCD_print_char>
	LCD_print_double_number(current_time.year);
    1552:	89 81       	ldd	r24, Y+1	; 0x01
    1554:	90 e0       	ldi	r25, 0x00	; 0
    1556:	0e 94 b3 08 	call	0x1166	; 0x1166 <LCD_print_double_number>
	
	// Printing Temperature portion
	LCD_goto(64,1);
    155a:	61 e0       	ldi	r22, 0x01	; 1
    155c:	70 e0       	ldi	r23, 0x00	; 0
    155e:	80 e4       	ldi	r24, 0x40	; 64
    1560:	90 e0       	ldi	r25, 0x00	; 0
    1562:	0e 94 b4 07 	call	0xf68	; 0xf68 <LCD_goto>
	LCD_print_double_number(current_temperature);
    1566:	c8 01       	movw	r24, r16
    1568:	0e 94 b3 08 	call	0x1166	; 0x1166 <LCD_print_double_number>
	LCD_print_string(" C",0);
    156c:	60 e0       	ldi	r22, 0x00	; 0
    156e:	89 e3       	ldi	r24, 0x39	; 57
    1570:	91 e0       	ldi	r25, 0x01	; 1
    1572:	0e 94 ce 09 	call	0x139c	; 0x139c <LCD_print_string>
	
	// Printing bottom menu
	LCD_goto(65,4);
    1576:	64 e0       	ldi	r22, 0x04	; 4
    1578:	70 e0       	ldi	r23, 0x00	; 0
    157a:	81 e4       	ldi	r24, 0x41	; 65
    157c:	90 e0       	ldi	r25, 0x00	; 0
    157e:	0e 94 b4 07 	call	0xf68	; 0xf68 <LCD_goto>
	LCD_print_string(a1,0);
    1582:	60 e0       	ldi	r22, 0x00	; 0
    1584:	c5 01       	movw	r24, r10
    1586:	0e 94 ce 09 	call	0x139c	; 0x139c <LCD_print_string>
	LCD_print_bottom_menu(button1, button2, a2);
    158a:	a4 01       	movw	r20, r8
    158c:	b6 01       	movw	r22, r12
    158e:	c7 01       	movw	r24, r14
    1590:	0e 94 ea 09 	call	0x13d4	; 0x13d4 <LCD_print_bottom_menu>
}
    1594:	28 96       	adiw	r28, 0x08	; 8
    1596:	0f b6       	in	r0, 0x3f	; 63
    1598:	f8 94       	cli
    159a:	de bf       	out	0x3e, r29	; 62
    159c:	0f be       	out	0x3f, r0	; 63
    159e:	cd bf       	out	0x3d, r28	; 61
    15a0:	df 91       	pop	r29
    15a2:	cf 91       	pop	r28
    15a4:	1f 91       	pop	r17
    15a6:	0f 91       	pop	r16
    15a8:	ff 90       	pop	r15
    15aa:	ef 90       	pop	r14
    15ac:	df 90       	pop	r13
    15ae:	cf 90       	pop	r12
    15b0:	bf 90       	pop	r11
    15b2:	af 90       	pop	r10
    15b4:	9f 90       	pop	r9
    15b6:	8f 90       	pop	r8
    15b8:	08 95       	ret

000015ba <LCD_print_alarm_display>:
	selection - parameter selected
Return value : None.
--------------------------------------------------------------------------------------------------*/

void LCD_print_alarm_display(alarm_t alarmtime, uint8_t selection)
{
    15ba:	ef 92       	push	r14
    15bc:	ff 92       	push	r15
    15be:	0f 93       	push	r16
    15c0:	1f 93       	push	r17
    15c2:	cf 93       	push	r28
    15c4:	df 93       	push	r29
    15c6:	cd b7       	in	r28, 0x3d	; 61
    15c8:	de b7       	in	r29, 0x3e	; 62
    15ca:	28 97       	sbiw	r28, 0x08	; 8
    15cc:	0f b6       	in	r0, 0x3f	; 63
    15ce:	f8 94       	cli
    15d0:	de bf       	out	0x3e, r29	; 62
    15d2:	0f be       	out	0x3f, r0	; 63
    15d4:	cd bf       	out	0x3d, r28	; 61
    15d6:	6d 83       	std	Y+5, r22	; 0x05
    15d8:	e2 2e       	mov	r14, r18
    15da:	13 2f       	mov	r17, r19
    15dc:	f4 2e       	mov	r15, r20
	int i;
	
	LCD_clear_screen();
    15de:	0e 94 bf 07 	call	0xf7e	; 0xf7e <LCD_clear_screen>
	LCD_goto(0,0);
    15e2:	60 e0       	ldi	r22, 0x00	; 0
    15e4:	70 e0       	ldi	r23, 0x00	; 0
    15e6:	80 e0       	ldi	r24, 0x00	; 0
    15e8:	90 e0       	ldi	r25, 0x00	; 0
    15ea:	0e 94 b4 07 	call	0xf68	; 0xf68 <LCD_goto>
	if(alarmtime.alarm_number == 1)
    15ee:	9d 81       	ldd	r25, Y+5	; 0x05
    15f0:	91 30       	cpi	r25, 0x01	; 1
    15f2:	31 f4       	brne	.+12     	; 0x1600 <LCD_print_alarm_display+0x46>
	{
		LCD_print_string("A1:",0);
    15f4:	60 e0       	ldi	r22, 0x00	; 0
    15f6:	8c e3       	ldi	r24, 0x3C	; 60
    15f8:	91 e0       	ldi	r25, 0x01	; 1
    15fa:	0e 94 ce 09 	call	0x139c	; 0x139c <LCD_print_string>
    15fe:	05 c0       	rjmp	.+10     	; 0x160a <LCD_print_alarm_display+0x50>
	}
	else
	{
		LCD_print_string("A2:",0);
    1600:	60 e0       	ldi	r22, 0x00	; 0
    1602:	80 e4       	ldi	r24, 0x40	; 64
    1604:	91 e0       	ldi	r25, 0x01	; 1
    1606:	0e 94 ce 09 	call	0x139c	; 0x139c <LCD_print_string>
	}
	
	switch (selection)
    160a:	01 30       	cpi	r16, 0x01	; 1
    160c:	a1 f1       	breq	.+104    	; 0x1676 <LCD_print_alarm_display+0xbc>
    160e:	20 f0       	brcs	.+8      	; 0x1618 <LCD_print_alarm_display+0x5e>
    1610:	02 30       	cpi	r16, 0x02	; 2
    1612:	09 f4       	brne	.+2      	; 0x1616 <LCD_print_alarm_display+0x5c>
    1614:	5f c0       	rjmp	.+190    	; 0x16d4 <LCD_print_alarm_display+0x11a>
    1616:	a7 c0       	rjmp	.+334    	; 0x1766 <LCD_print_alarm_display+0x1ac>
	{
		case (MINUTES):
			LCD_print_largedouble_number(alarmtime.hour, 18,1,HOURS, NOTINVERTED);
    1618:	00 e0       	ldi	r16, 0x00	; 0
    161a:	21 e0       	ldi	r18, 0x01	; 1
    161c:	41 e0       	ldi	r20, 0x01	; 1
    161e:	50 e0       	ldi	r21, 0x00	; 0
    1620:	62 e1       	ldi	r22, 0x12	; 18
    1622:	70 e0       	ldi	r23, 0x00	; 0
    1624:	8e 2d       	mov	r24, r14
    1626:	90 e0       	ldi	r25, 0x00	; 0
    1628:	0e 94 0f 09 	call	0x121e	; 0x121e <LCD_print_largedouble_number>
			LCD_print_large_colon(38,1);
    162c:	61 e0       	ldi	r22, 0x01	; 1
    162e:	86 e2       	ldi	r24, 0x26	; 38
    1630:	0e 94 90 09 	call	0x1320	; 0x1320 <LCD_print_large_colon>
			LCD_print_largedouble_number(alarmtime.minute, 43, 1, MINUTES, INVERTED);
    1634:	01 e0       	ldi	r16, 0x01	; 1
    1636:	20 e0       	ldi	r18, 0x00	; 0
    1638:	41 e0       	ldi	r20, 0x01	; 1
    163a:	50 e0       	ldi	r21, 0x00	; 0
    163c:	6b e2       	ldi	r22, 0x2B	; 43
    163e:	70 e0       	ldi	r23, 0x00	; 0
    1640:	81 2f       	mov	r24, r17
    1642:	90 e0       	ldi	r25, 0x00	; 0
    1644:	0e 94 0f 09 	call	0x121e	; 0x121e <LCD_print_largedouble_number>
			LCD_print_string(" ",0);
    1648:	60 e0       	ldi	r22, 0x00	; 0
    164a:	81 e3       	ldi	r24, 0x31	; 49
    164c:	91 e0       	ldi	r25, 0x01	; 1
    164e:	0e 94 ce 09 	call	0x139c	; 0x139c <LCD_print_string>
			LCD_set_y(2);
    1652:	82 e0       	ldi	r24, 0x02	; 2
    1654:	90 e0       	ldi	r25, 0x00	; 0
    1656:	0e 94 f5 07 	call	0xfea	; 0xfea <LCD_set_y>
			if(alarmtime.AM_PM){
    165a:	ff 20       	and	r15, r15
    165c:	31 f0       	breq	.+12     	; 0x166a <LCD_print_alarm_display+0xb0>
				LCD_print_string("PM",0);
    165e:	60 e0       	ldi	r22, 0x00	; 0
    1660:	83 e3       	ldi	r24, 0x33	; 51
    1662:	91 e0       	ldi	r25, 0x01	; 1
    1664:	0e 94 ce 09 	call	0x139c	; 0x139c <LCD_print_string>
    1668:	7e c0       	rjmp	.+252    	; 0x1766 <LCD_print_alarm_display+0x1ac>
			}
			else{
				LCD_print_string("AM",0);
    166a:	60 e0       	ldi	r22, 0x00	; 0
    166c:	86 e3       	ldi	r24, 0x36	; 54
    166e:	91 e0       	ldi	r25, 0x01	; 1
    1670:	0e 94 ce 09 	call	0x139c	; 0x139c <LCD_print_string>
    1674:	78 c0       	rjmp	.+240    	; 0x1766 <LCD_print_alarm_display+0x1ac>
			}
			break;
		case (HOURS):
			LCD_print_largedouble_number(alarmtime.hour, 18,1,HOURS, INVERTED);
    1676:	01 e0       	ldi	r16, 0x01	; 1
    1678:	21 e0       	ldi	r18, 0x01	; 1
    167a:	41 e0       	ldi	r20, 0x01	; 1
    167c:	50 e0       	ldi	r21, 0x00	; 0
    167e:	62 e1       	ldi	r22, 0x12	; 18
    1680:	70 e0       	ldi	r23, 0x00	; 0
    1682:	8e 2d       	mov	r24, r14
    1684:	90 e0       	ldi	r25, 0x00	; 0
    1686:	0e 94 0f 09 	call	0x121e	; 0x121e <LCD_print_largedouble_number>
			LCD_print_large_colon(38,1);
    168a:	61 e0       	ldi	r22, 0x01	; 1
    168c:	86 e2       	ldi	r24, 0x26	; 38
    168e:	0e 94 90 09 	call	0x1320	; 0x1320 <LCD_print_large_colon>
			LCD_print_largedouble_number(alarmtime.minute, 43, 1, MINUTES, NOTINVERTED);
    1692:	00 e0       	ldi	r16, 0x00	; 0
    1694:	20 e0       	ldi	r18, 0x00	; 0
    1696:	41 e0       	ldi	r20, 0x01	; 1
    1698:	50 e0       	ldi	r21, 0x00	; 0
    169a:	6b e2       	ldi	r22, 0x2B	; 43
    169c:	70 e0       	ldi	r23, 0x00	; 0
    169e:	81 2f       	mov	r24, r17
    16a0:	90 e0       	ldi	r25, 0x00	; 0
    16a2:	0e 94 0f 09 	call	0x121e	; 0x121e <LCD_print_largedouble_number>
			LCD_print_string(" ",0);
    16a6:	60 e0       	ldi	r22, 0x00	; 0
    16a8:	81 e3       	ldi	r24, 0x31	; 49
    16aa:	91 e0       	ldi	r25, 0x01	; 1
    16ac:	0e 94 ce 09 	call	0x139c	; 0x139c <LCD_print_string>
			LCD_set_y(2);
    16b0:	82 e0       	ldi	r24, 0x02	; 2
    16b2:	90 e0       	ldi	r25, 0x00	; 0
    16b4:	0e 94 f5 07 	call	0xfea	; 0xfea <LCD_set_y>
			if(alarmtime.AM_PM){
    16b8:	ff 20       	and	r15, r15
    16ba:	31 f0       	breq	.+12     	; 0x16c8 <LCD_print_alarm_display+0x10e>
				LCD_print_string("PM",NOTINVERTED);
    16bc:	60 e0       	ldi	r22, 0x00	; 0
    16be:	83 e3       	ldi	r24, 0x33	; 51
    16c0:	91 e0       	ldi	r25, 0x01	; 1
    16c2:	0e 94 ce 09 	call	0x139c	; 0x139c <LCD_print_string>
    16c6:	4f c0       	rjmp	.+158    	; 0x1766 <LCD_print_alarm_display+0x1ac>
			}
			else{
				LCD_print_string("AM",NOTINVERTED);
    16c8:	60 e0       	ldi	r22, 0x00	; 0
    16ca:	86 e3       	ldi	r24, 0x36	; 54
    16cc:	91 e0       	ldi	r25, 0x01	; 1
    16ce:	0e 94 ce 09 	call	0x139c	; 0x139c <LCD_print_string>
    16d2:	49 c0       	rjmp	.+146    	; 0x1766 <LCD_print_alarm_display+0x1ac>
			}
			break;
		case (AMPM):
			LCD_print_largedouble_number(alarmtime.hour, 18,1,HOURS, NOTINVERTED);
    16d4:	00 e0       	ldi	r16, 0x00	; 0
    16d6:	21 e0       	ldi	r18, 0x01	; 1
    16d8:	41 e0       	ldi	r20, 0x01	; 1
    16da:	50 e0       	ldi	r21, 0x00	; 0
    16dc:	62 e1       	ldi	r22, 0x12	; 18
    16de:	70 e0       	ldi	r23, 0x00	; 0
    16e0:	8e 2d       	mov	r24, r14
    16e2:	90 e0       	ldi	r25, 0x00	; 0
    16e4:	0e 94 0f 09 	call	0x121e	; 0x121e <LCD_print_largedouble_number>
			LCD_print_large_colon(38,1);
    16e8:	61 e0       	ldi	r22, 0x01	; 1
    16ea:	86 e2       	ldi	r24, 0x26	; 38
    16ec:	0e 94 90 09 	call	0x1320	; 0x1320 <LCD_print_large_colon>
			LCD_print_largedouble_number(alarmtime.minute, 43, 1, MINUTES, NOTINVERTED);
    16f0:	20 e0       	ldi	r18, 0x00	; 0
    16f2:	41 e0       	ldi	r20, 0x01	; 1
    16f4:	50 e0       	ldi	r21, 0x00	; 0
    16f6:	6b e2       	ldi	r22, 0x2B	; 43
    16f8:	70 e0       	ldi	r23, 0x00	; 0
    16fa:	81 2f       	mov	r24, r17
    16fc:	90 e0       	ldi	r25, 0x00	; 0
    16fe:	0e 94 0f 09 	call	0x121e	; 0x121e <LCD_print_largedouble_number>
			LCD_print_string(" ",0);
    1702:	60 e0       	ldi	r22, 0x00	; 0
    1704:	81 e3       	ldi	r24, 0x31	; 49
    1706:	91 e0       	ldi	r25, 0x01	; 1
    1708:	0e 94 ce 09 	call	0x139c	; 0x139c <LCD_print_string>
			LCD_set_y(1);
    170c:	81 e0       	ldi	r24, 0x01	; 1
    170e:	90 e0       	ldi	r25, 0x00	; 0
    1710:	0e 94 f5 07 	call	0xfea	; 0xfea <LCD_set_y>
    1714:	0c e0       	ldi	r16, 0x0C	; 12
    1716:	10 e0       	ldi	r17, 0x00	; 0
			for(i=0;i<12;i++){
				LCD_send_data(0x80);
    1718:	80 e8       	ldi	r24, 0x80	; 128
    171a:	0e 94 ac 07 	call	0xf58	; 0xf58 <LCD_send_data>
    171e:	01 50       	subi	r16, 0x01	; 1
    1720:	11 09       	sbc	r17, r1
			LCD_print_largedouble_number(alarmtime.hour, 18,1,HOURS, NOTINVERTED);
			LCD_print_large_colon(38,1);
			LCD_print_largedouble_number(alarmtime.minute, 43, 1, MINUTES, NOTINVERTED);
			LCD_print_string(" ",0);
			LCD_set_y(1);
			for(i=0;i<12;i++){
    1722:	01 15       	cp	r16, r1
    1724:	11 05       	cpc	r17, r1
    1726:	c1 f7       	brne	.-16     	; 0x1718 <LCD_print_alarm_display+0x15e>
				LCD_send_data(0x80);
			}
			LCD_goto(68,2);
    1728:	62 e0       	ldi	r22, 0x02	; 2
    172a:	70 e0       	ldi	r23, 0x00	; 0
    172c:	84 e4       	ldi	r24, 0x44	; 68
    172e:	90 e0       	ldi	r25, 0x00	; 0
    1730:	0e 94 b4 07 	call	0xf68	; 0xf68 <LCD_goto>
			if(alarmtime.AM_PM){
    1734:	ff 20       	and	r15, r15
    1736:	61 f0       	breq	.+24     	; 0x1750 <LCD_print_alarm_display+0x196>
				LCD_send_data(0xFF);
    1738:	8f ef       	ldi	r24, 0xFF	; 255
    173a:	0e 94 ac 07 	call	0xf58	; 0xf58 <LCD_send_data>
				LCD_print_string("PM",INVERTED);
    173e:	61 e0       	ldi	r22, 0x01	; 1
    1740:	83 e3       	ldi	r24, 0x33	; 51
    1742:	91 e0       	ldi	r25, 0x01	; 1
    1744:	0e 94 ce 09 	call	0x139c	; 0x139c <LCD_print_string>
				LCD_send_data(0xFF);
    1748:	8f ef       	ldi	r24, 0xFF	; 255
    174a:	0e 94 ac 07 	call	0xf58	; 0xf58 <LCD_send_data>
    174e:	0b c0       	rjmp	.+22     	; 0x1766 <LCD_print_alarm_display+0x1ac>
			}
			else{
				LCD_send_data(0xFF);
    1750:	8f ef       	ldi	r24, 0xFF	; 255
    1752:	0e 94 ac 07 	call	0xf58	; 0xf58 <LCD_send_data>
				LCD_print_string("AM",INVERTED);
    1756:	61 e0       	ldi	r22, 0x01	; 1
    1758:	86 e3       	ldi	r24, 0x36	; 54
    175a:	91 e0       	ldi	r25, 0x01	; 1
    175c:	0e 94 ce 09 	call	0x139c	; 0x139c <LCD_print_string>
				LCD_send_data(0xFF);
    1760:	8f ef       	ldi	r24, 0xFF	; 255
    1762:	0e 94 ac 07 	call	0xf58	; 0xf58 <LCD_send_data>
			}
			break;
	}
	
	LCD_print_bottom_menu("Down", "Set", "Up");
    1766:	44 e4       	ldi	r20, 0x44	; 68
    1768:	51 e0       	ldi	r21, 0x01	; 1
    176a:	67 e4       	ldi	r22, 0x47	; 71
    176c:	71 e0       	ldi	r23, 0x01	; 1
    176e:	8b e4       	ldi	r24, 0x4B	; 75
    1770:	91 e0       	ldi	r25, 0x01	; 1
    1772:	0e 94 ea 09 	call	0x13d4	; 0x13d4 <LCD_print_bottom_menu>
}
    1776:	28 96       	adiw	r28, 0x08	; 8
    1778:	0f b6       	in	r0, 0x3f	; 63
    177a:	f8 94       	cli
    177c:	de bf       	out	0x3e, r29	; 62
    177e:	0f be       	out	0x3f, r0	; 63
    1780:	cd bf       	out	0x3d, r28	; 61
    1782:	df 91       	pop	r29
    1784:	cf 91       	pop	r28
    1786:	1f 91       	pop	r17
    1788:	0f 91       	pop	r16
    178a:	ff 90       	pop	r15
    178c:	ef 90       	pop	r14
    178e:	08 95       	ret

00001790 <LCD_print_menu>:
Argument(s) : selection - selected state 0-5
Return value : None.
--------------------------------------------------------------------------------------------------*/

void LCD_print_menu(uint8_t selection)
{
    1790:	cf 93       	push	r28
    1792:	c8 2f       	mov	r28, r24
	LCD_goto(31,0);
    1794:	60 e0       	ldi	r22, 0x00	; 0
    1796:	70 e0       	ldi	r23, 0x00	; 0
    1798:	8f e1       	ldi	r24, 0x1F	; 31
    179a:	90 e0       	ldi	r25, 0x00	; 0
    179c:	0e 94 b4 07 	call	0xf68	; 0xf68 <LCD_goto>
	LCD_print_string(menu_text[0],selection == 0);
    17a0:	61 e0       	ldi	r22, 0x01	; 1
    17a2:	c1 11       	cpse	r28, r1
    17a4:	60 e0       	ldi	r22, 0x00	; 0
    17a6:	80 e5       	ldi	r24, 0x50	; 80
    17a8:	91 e0       	ldi	r25, 0x01	; 1
    17aa:	0e 94 ce 09 	call	0x139c	; 0x139c <LCD_print_string>
	LCD_goto(23,1);
    17ae:	61 e0       	ldi	r22, 0x01	; 1
    17b0:	70 e0       	ldi	r23, 0x00	; 0
    17b2:	87 e1       	ldi	r24, 0x17	; 23
    17b4:	90 e0       	ldi	r25, 0x00	; 0
    17b6:	0e 94 b4 07 	call	0xf68	; 0xf68 <LCD_goto>
	LCD_print_string(menu_text[1],selection == 1);
    17ba:	61 e0       	ldi	r22, 0x01	; 1
    17bc:	c1 30       	cpi	r28, 0x01	; 1
    17be:	09 f0       	breq	.+2      	; 0x17c2 <LCD_print_menu+0x32>
    17c0:	60 e0       	ldi	r22, 0x00	; 0
    17c2:	8c e5       	ldi	r24, 0x5C	; 92
    17c4:	91 e0       	ldi	r25, 0x01	; 1
    17c6:	0e 94 ce 09 	call	0x139c	; 0x139c <LCD_print_string>
	LCD_goto(21,2);
    17ca:	62 e0       	ldi	r22, 0x02	; 2
    17cc:	70 e0       	ldi	r23, 0x00	; 0
    17ce:	85 e1       	ldi	r24, 0x15	; 21
    17d0:	90 e0       	ldi	r25, 0x00	; 0
    17d2:	0e 94 b4 07 	call	0xf68	; 0xf68 <LCD_goto>
	LCD_print_string(menu_text[2],selection == 2);
    17d6:	61 e0       	ldi	r22, 0x01	; 1
    17d8:	c2 30       	cpi	r28, 0x02	; 2
    17da:	09 f0       	breq	.+2      	; 0x17de <LCD_print_menu+0x4e>
    17dc:	60 e0       	ldi	r22, 0x00	; 0
    17de:	88 e6       	ldi	r24, 0x68	; 104
    17e0:	91 e0       	ldi	r25, 0x01	; 1
    17e2:	0e 94 ce 09 	call	0x139c	; 0x139c <LCD_print_string>
	LCD_goto(13,3);
    17e6:	63 e0       	ldi	r22, 0x03	; 3
    17e8:	70 e0       	ldi	r23, 0x00	; 0
    17ea:	8d e0       	ldi	r24, 0x0D	; 13
    17ec:	90 e0       	ldi	r25, 0x00	; 0
    17ee:	0e 94 b4 07 	call	0xf68	; 0xf68 <LCD_goto>
	LCD_print_string(menu_text[3],selection == 3);
    17f2:	61 e0       	ldi	r22, 0x01	; 1
    17f4:	c3 30       	cpi	r28, 0x03	; 3
    17f6:	09 f0       	breq	.+2      	; 0x17fa <LCD_print_menu+0x6a>
    17f8:	60 e0       	ldi	r22, 0x00	; 0
    17fa:	84 e7       	ldi	r24, 0x74	; 116
    17fc:	91 e0       	ldi	r25, 0x01	; 1
    17fe:	0e 94 ce 09 	call	0x139c	; 0x139c <LCD_print_string>
	LCD_goto(13,4);
    1802:	64 e0       	ldi	r22, 0x04	; 4
    1804:	70 e0       	ldi	r23, 0x00	; 0
    1806:	8d e0       	ldi	r24, 0x0D	; 13
    1808:	90 e0       	ldi	r25, 0x00	; 0
    180a:	0e 94 b4 07 	call	0xf68	; 0xf68 <LCD_goto>
	LCD_print_string(menu_text[4],selection == 4);
    180e:	61 e0       	ldi	r22, 0x01	; 1
    1810:	c4 30       	cpi	r28, 0x04	; 4
    1812:	09 f0       	breq	.+2      	; 0x1816 <LCD_print_menu+0x86>
    1814:	60 e0       	ldi	r22, 0x00	; 0
    1816:	80 e8       	ldi	r24, 0x80	; 128
    1818:	91 e0       	ldi	r25, 0x01	; 1
    181a:	0e 94 ce 09 	call	0x139c	; 0x139c <LCD_print_string>
	LCD_goto(31,5);
    181e:	65 e0       	ldi	r22, 0x05	; 5
    1820:	70 e0       	ldi	r23, 0x00	; 0
    1822:	8f e1       	ldi	r24, 0x1F	; 31
    1824:	90 e0       	ldi	r25, 0x00	; 0
    1826:	0e 94 b4 07 	call	0xf68	; 0xf68 <LCD_goto>
	LCD_print_string(menu_text[5],selection == 5);
    182a:	61 e0       	ldi	r22, 0x01	; 1
    182c:	c5 30       	cpi	r28, 0x05	; 5
    182e:	09 f0       	breq	.+2      	; 0x1832 <LCD_print_menu+0xa2>
    1830:	60 e0       	ldi	r22, 0x00	; 0
    1832:	8c e8       	ldi	r24, 0x8C	; 140
    1834:	91 e0       	ldi	r25, 0x01	; 1
    1836:	0e 94 ce 09 	call	0x139c	; 0x139c <LCD_print_string>
	
}
    183a:	cf 91       	pop	r28
    183c:	08 95       	ret

0000183e <fromBCD>:
Argument(s) : data_in - Raw Data from RTC
Return value : Decoded integer
--------------------------------------------------------------------------------------------------*/

uint8_t fromBCD(uint8_t data_in){
	return ((data_in & 0x0F) + 10*((data_in>>4) & 0x07));
    183e:	98 2f       	mov	r25, r24
    1840:	96 95       	lsr	r25
    1842:	96 95       	lsr	r25
    1844:	96 95       	lsr	r25
    1846:	9e 70       	andi	r25, 0x0E	; 14
    1848:	29 2f       	mov	r18, r25
    184a:	22 0f       	add	r18, r18
    184c:	22 0f       	add	r18, r18
    184e:	92 0f       	add	r25, r18
    1850:	8f 70       	andi	r24, 0x0F	; 15
}
    1852:	89 0f       	add	r24, r25
    1854:	08 95       	ret

00001856 <toBCD>:
Argument(s) : data_out - Integer data to be sent out
Return value : BCD to send to RTC
--------------------------------------------------------------------------------------------------*/

uint8_t toBCD(uint8_t data_out){
	return (((data_out/10)<<4) | (data_out % 10));
    1856:	9d ec       	ldi	r25, 0xCD	; 205
    1858:	89 9f       	mul	r24, r25
    185a:	91 2d       	mov	r25, r1
    185c:	11 24       	eor	r1, r1
    185e:	96 95       	lsr	r25
    1860:	96 95       	lsr	r25
    1862:	96 95       	lsr	r25
    1864:	40 e1       	ldi	r20, 0x10	; 16
    1866:	94 9f       	mul	r25, r20
    1868:	90 01       	movw	r18, r0
    186a:	11 24       	eor	r1, r1
    186c:	99 0f       	add	r25, r25
    186e:	39 2f       	mov	r19, r25
    1870:	33 0f       	add	r19, r19
    1872:	33 0f       	add	r19, r19
    1874:	93 0f       	add	r25, r19
    1876:	89 1b       	sub	r24, r25
}
    1878:	82 2b       	or	r24, r18
    187a:	08 95       	ret

0000187c <RTC_Set>:
Argument(s) : time_t - Data structure that represents the time to be set
Return value : None.
--------------------------------------------------------------------------------------------------*/

void RTC_Set(time_t times)
{
    187c:	1f 93       	push	r17
    187e:	cf 93       	push	r28
    1880:	df 93       	push	r29
    1882:	cd b7       	in	r28, 0x3d	; 61
    1884:	de b7       	in	r29, 0x3e	; 62
    1886:	28 97       	sbiw	r28, 0x08	; 8
    1888:	0f b6       	in	r0, 0x3f	; 63
    188a:	f8 94       	cli
    188c:	de bf       	out	0x3e, r29	; 62
    188e:	0f be       	out	0x3f, r0	; 63
    1890:	cd bf       	out	0x3d, r28	; 61
    1892:	29 83       	std	Y+1, r18	; 0x01
    1894:	3a 83       	std	Y+2, r19	; 0x02
    1896:	4b 83       	std	Y+3, r20	; 0x03
    1898:	5c 83       	std	Y+4, r21	; 0x04
    189a:	7e 83       	std	Y+6, r23	; 0x06
    189c:	8f 83       	std	Y+7, r24	; 0x07
    189e:	98 87       	std	Y+8, r25	; 0x08
    18a0:	16 2f       	mov	r17, r22
	
	i2c_start(RTC_WRITE);
    18a2:	80 ed       	ldi	r24, 0xD0	; 208
    18a4:	0e 94 24 0d 	call	0x1a48	; 0x1a48 <i2c_start>
	i2c_write(SECONDS_R);
    18a8:	80 e0       	ldi	r24, 0x00	; 0
    18aa:	0e 94 57 0d 	call	0x1aae	; 0x1aae <i2c_write>
	i2c_write(toBCD(times.second));
    18ae:	8f 81       	ldd	r24, Y+7	; 0x07
    18b0:	0e 94 2b 0c 	call	0x1856	; 0x1856 <toBCD>
    18b4:	0e 94 57 0d 	call	0x1aae	; 0x1aae <i2c_write>
	i2c_write(toBCD(times.minute));
    18b8:	8e 81       	ldd	r24, Y+6	; 0x06
    18ba:	0e 94 2b 0c 	call	0x1856	; 0x1856 <toBCD>
    18be:	0e 94 57 0d 	call	0x1aae	; 0x1aae <i2c_write>
	if(times.AM_PM){ // Set to PM
    18c2:	88 85       	ldd	r24, Y+8	; 0x08
    18c4:	88 23       	and	r24, r24
    18c6:	39 f0       	breq	.+14     	; 0x18d6 <RTC_Set+0x5a>
		i2c_write(toBCD(times.hour) | _BV(5) | _BV(6));
    18c8:	81 2f       	mov	r24, r17
    18ca:	0e 94 2b 0c 	call	0x1856	; 0x1856 <toBCD>
    18ce:	80 66       	ori	r24, 0x60	; 96
    18d0:	0e 94 57 0d 	call	0x1aae	; 0x1aae <i2c_write>
    18d4:	07 c0       	rjmp	.+14     	; 0x18e4 <RTC_Set+0x68>
	}
	else{ // Set to AM
		i2c_write((toBCD(times.hour) | _BV(6)) & ~_BV(5));
    18d6:	81 2f       	mov	r24, r17
    18d8:	0e 94 2b 0c 	call	0x1856	; 0x1856 <toBCD>
    18dc:	8f 79       	andi	r24, 0x9F	; 159
    18de:	80 64       	ori	r24, 0x40	; 64
    18e0:	0e 94 57 0d 	call	0x1aae	; 0x1aae <i2c_write>
	}
	i2c_write(toBCD(times.day_of_week));
    18e4:	8c 81       	ldd	r24, Y+4	; 0x04
    18e6:	0e 94 2b 0c 	call	0x1856	; 0x1856 <toBCD>
    18ea:	0e 94 57 0d 	call	0x1aae	; 0x1aae <i2c_write>
	i2c_write(toBCD(times.day));
    18ee:	8b 81       	ldd	r24, Y+3	; 0x03
    18f0:	0e 94 2b 0c 	call	0x1856	; 0x1856 <toBCD>
    18f4:	0e 94 57 0d 	call	0x1aae	; 0x1aae <i2c_write>
	i2c_write(toBCD(times.month));
    18f8:	8a 81       	ldd	r24, Y+2	; 0x02
    18fa:	0e 94 2b 0c 	call	0x1856	; 0x1856 <toBCD>
    18fe:	0e 94 57 0d 	call	0x1aae	; 0x1aae <i2c_write>
	i2c_write(toBCD(times.year));
    1902:	89 81       	ldd	r24, Y+1	; 0x01
    1904:	0e 94 2b 0c 	call	0x1856	; 0x1856 <toBCD>
    1908:	0e 94 57 0d 	call	0x1aae	; 0x1aae <i2c_write>
	i2c_stop();
    190c:	0e 94 4e 0d 	call	0x1a9c	; 0x1a9c <i2c_stop>
	
	I2C_SendMessage(RTC_ADDRESS, MINUTES_R, toBCD(times.minute));
	I2C_SendMessage(RTC_ADDRESS, SECONDS_R, toBCD(times.second));
	*/
	
}
    1910:	28 96       	adiw	r28, 0x08	; 8
    1912:	0f b6       	in	r0, 0x3f	; 63
    1914:	f8 94       	cli
    1916:	de bf       	out	0x3e, r29	; 62
    1918:	0f be       	out	0x3f, r0	; 63
    191a:	cd bf       	out	0x3d, r28	; 61
    191c:	df 91       	pop	r29
    191e:	cf 91       	pop	r28
    1920:	1f 91       	pop	r17
    1922:	08 95       	ret

00001924 <RTC_Read>:
Argument(s) : Pointer to the time_t data structure used for the current time
Return value : None.
--------------------------------------------------------------------------------------------------*/

void RTC_Read(time_t *times)
{
    1924:	1f 93       	push	r17
    1926:	cf 93       	push	r28
    1928:	df 93       	push	r29
    192a:	ec 01       	movw	r28, r24
	
	//point to first address
	uint8_t hour_temp;
	//uint8_t err; // dummy return variable
	i2c_start(RTC_WRITE);
    192c:	80 ed       	ldi	r24, 0xD0	; 208
    192e:	0e 94 24 0d 	call	0x1a48	; 0x1a48 <i2c_start>
	i2c_write(SECONDS_R);
    1932:	80 e0       	ldi	r24, 0x00	; 0
    1934:	0e 94 57 0d 	call	0x1aae	; 0x1aae <i2c_write>
	//initialize read mode
	i2c_rep_start(RTC_READ);
    1938:	81 ed       	ldi	r24, 0xD1	; 209
    193a:	0e 94 4b 0d 	call	0x1a96	; 0x1a96 <i2c_rep_start>
	//read all the data
	times->second = fromBCD(i2c_readAck());
    193e:	0e 94 69 0d 	call	0x1ad2	; 0x1ad2 <i2c_readAck>
    1942:	0e 94 1f 0c 	call	0x183e	; 0x183e <fromBCD>
    1946:	8e 83       	std	Y+6, r24	; 0x06
	times->minute = fromBCD(i2c_readAck());
    1948:	0e 94 69 0d 	call	0x1ad2	; 0x1ad2 <i2c_readAck>
    194c:	0e 94 1f 0c 	call	0x183e	; 0x183e <fromBCD>
    1950:	8d 83       	std	Y+5, r24	; 0x05
	hour_temp = i2c_readAck();
    1952:	0e 94 69 0d 	call	0x1ad2	; 0x1ad2 <i2c_readAck>
    1956:	18 2f       	mov	r17, r24
	times->day_of_week = fromBCD(i2c_readAck());
    1958:	0e 94 69 0d 	call	0x1ad2	; 0x1ad2 <i2c_readAck>
    195c:	0e 94 1f 0c 	call	0x183e	; 0x183e <fromBCD>
    1960:	8b 83       	std	Y+3, r24	; 0x03
	times->day = fromBCD(i2c_readAck());
    1962:	0e 94 69 0d 	call	0x1ad2	; 0x1ad2 <i2c_readAck>
    1966:	0e 94 1f 0c 	call	0x183e	; 0x183e <fromBCD>
    196a:	8a 83       	std	Y+2, r24	; 0x02
	times->month = fromBCD(i2c_readAck());
    196c:	0e 94 69 0d 	call	0x1ad2	; 0x1ad2 <i2c_readAck>
    1970:	0e 94 1f 0c 	call	0x183e	; 0x183e <fromBCD>
    1974:	89 83       	std	Y+1, r24	; 0x01
	times->year = fromBCD(i2c_readNak());
    1976:	0e 94 74 0d 	call	0x1ae8	; 0x1ae8 <i2c_readNak>
    197a:	0e 94 1f 0c 	call	0x183e	; 0x183e <fromBCD>
    197e:	88 83       	st	Y, r24
	//split apart hour and am/pm
	times->hour  = fromBCD(hour_temp & 0x1F);
    1980:	81 2f       	mov	r24, r17
    1982:	8f 71       	andi	r24, 0x1F	; 31
    1984:	0e 94 1f 0c 	call	0x183e	; 0x183e <fromBCD>
    1988:	8c 83       	std	Y+4, r24	; 0x04
	times->AM_PM = (hour_temp & _BV(5))>>5;
    198a:	15 fb       	bst	r17, 5
    198c:	11 27       	eor	r17, r17
    198e:	10 f9       	bld	r17, 0
    1990:	1f 83       	std	Y+7, r17	; 0x07
	i2c_stop();
    1992:	0e 94 4e 0d 	call	0x1a9c	; 0x1a9c <i2c_stop>
	times->minute = fromBCD(I2C_RecieveMessage(RTC_ADDRESS, MINUTES_R));
	times->second = fromBCD(I2C_RecieveMessage(RTC_ADDRESS, SECONDS_R));
	times->AM_PM = (I2C_RecieveMessage(RTC_ADDRESS, HOURS_R) & _BV(5))>>5;
	*/
	
    1996:	df 91       	pop	r29
    1998:	cf 91       	pop	r28
    199a:	1f 91       	pop	r17
    199c:	08 95       	ret

0000199e <Timer0_Init>:
Return value : None.
--------------------------------------------------------------------------------------------------*/

void Timer0_Init(void){
	//Setup timer 0 w/ interrupt every ms and pre-scale of 64
	TCCR0A = _BV(WGM01);
    199e:	82 e0       	ldi	r24, 0x02	; 2
    19a0:	84 bd       	out	0x24, r24	; 36
	TCCR0B = _BV(CS01) | _BV(CS00);
    19a2:	93 e0       	ldi	r25, 0x03	; 3
    19a4:	95 bd       	out	0x25, r25	; 37
	TIMSK0 = _BV(OCIE0A);
    19a6:	80 93 6e 00 	sts	0x006E, r24
	OCR0A = 250;
    19aa:	8a ef       	ldi	r24, 0xFA	; 250
    19ac:	87 bd       	out	0x27, r24	; 39
	TIFR0 |= _BV(OCF0A);
    19ae:	a9 9a       	sbi	0x15, 1	; 21
	TCNT0 = 0;
    19b0:	16 bc       	out	0x26, r1	; 38
    19b2:	08 95       	ret

000019b4 <Timer2_Init>:
Return value : None.
--------------------------------------------------------------------------------------------------*/

void Timer2_Init(void){
	//Setup timer 1 to run in CTC mode 4 with 1024 prescalar
	TCCR2A = _BV(WGM21);
    19b4:	82 e0       	ldi	r24, 0x02	; 2
    19b6:	80 93 b0 00 	sts	0x00B0, r24
	TCCR2B |= _BV(CS22) | _BV(CS21) | _BV(CS20);
    19ba:	e1 eb       	ldi	r30, 0xB1	; 177
    19bc:	f0 e0       	ldi	r31, 0x00	; 0
    19be:	80 81       	ld	r24, Z
    19c0:	87 60       	ori	r24, 0x07	; 7
    19c2:	80 83       	st	Z, r24
    19c4:	08 95       	ret

000019c6 <Timer1_Init>:
Argument(s) : None.
Return value : None.
--------------------------------------------------------------------------------------------------*/
void Timer1_Init(void)
{
	DDRB |= _BV(PB1);
    19c6:	21 9a       	sbi	0x04, 1	; 4
	TCCR1A = _BV(COM1A1);
    19c8:	80 e8       	ldi	r24, 0x80	; 128
    19ca:	80 93 80 00 	sts	0x0080, r24
	TCCR1B = _BV(WGM13);
    19ce:	80 e1       	ldi	r24, 0x10	; 16
    19d0:	80 93 81 00 	sts	0x0081, r24
	ICR1 = 390;
    19d4:	86 e8       	ldi	r24, 0x86	; 134
    19d6:	91 e0       	ldi	r25, 0x01	; 1
    19d8:	90 93 87 00 	sts	0x0087, r25
    19dc:	80 93 86 00 	sts	0x0086, r24
	OCR1A = 90;
    19e0:	8a e5       	ldi	r24, 0x5A	; 90
    19e2:	90 e0       	ldi	r25, 0x00	; 0
    19e4:	90 93 89 00 	sts	0x0089, r25
    19e8:	80 93 88 00 	sts	0x0088, r24
    19ec:	08 95       	ret

000019ee <hw_delay>:
--------------------------------------------------------------------------------------------------*/
void hw_delay(uint16_t delay_ms)
{
	int i;
	//put delay into output compare register
	OCR2A = 15;
    19ee:	2f e0       	ldi	r18, 0x0F	; 15
    19f0:	20 93 b3 00 	sts	0x00B3, r18
	//clear output compare flag
	TIFR2 |= _BV(OCF2A);
    19f4:	b9 9a       	sbi	0x17, 1	; 23
	//reset timer
	TCNT2 = 0;
    19f6:	10 92 b2 00 	sts	0x00B2, r1
	
	for(i = 0; i < delay_ms; i++)
    19fa:	00 97       	sbiw	r24, 0x00	; 0
    19fc:	51 f0       	breq	.+20     	; 0x1a12 <hw_delay+0x24>
    19fe:	20 e0       	ldi	r18, 0x00	; 0
    1a00:	30 e0       	ldi	r19, 0x00	; 0
	{
		//wait for compare flag to be high
		while(!(TIFR2 & _BV(OCF2A)));
    1a02:	b9 9b       	sbis	0x17, 1	; 23
    1a04:	fe cf       	rjmp	.-4      	; 0x1a02 <hw_delay+0x14>
		//clear compare flag
		TIFR2 |= _BV(OCF2A);
    1a06:	b9 9a       	sbi	0x17, 1	; 23
	//clear output compare flag
	TIFR2 |= _BV(OCF2A);
	//reset timer
	TCNT2 = 0;
	
	for(i = 0; i < delay_ms; i++)
    1a08:	2f 5f       	subi	r18, 0xFF	; 255
    1a0a:	3f 4f       	sbci	r19, 0xFF	; 255
    1a0c:	28 17       	cp	r18, r24
    1a0e:	39 07       	cpc	r19, r25
    1a10:	c1 f7       	brne	.-16     	; 0x1a02 <hw_delay+0x14>
    1a12:	08 95       	ret

00001a14 <Timer1PWM_OnOff>:
Description : Function that enables and disables the Timer 1 PWM to turn on and off the bell alarm
Argument(s) : state - 1 turns PWM on and 0 turns PWM off
Return value : None.
--------------------------------------------------------------------------------------------------*/
void Timer1PWM_OnOff(uint8_t state){
	if (state){
    1a14:	88 23       	and	r24, r24
    1a16:	49 f0       	breq	.+18     	; 0x1a2a <Timer1PWM_OnOff+0x16>
		TCCR1B |= _BV(CS12) | _BV(CS10);
    1a18:	e1 e8       	ldi	r30, 0x81	; 129
    1a1a:	f0 e0       	ldi	r31, 0x00	; 0
    1a1c:	80 81       	ld	r24, Z
    1a1e:	85 60       	ori	r24, 0x05	; 5
    1a20:	80 83       	st	Z, r24
		TCCR1A = _BV(COM1A1);
    1a22:	80 e8       	ldi	r24, 0x80	; 128
    1a24:	80 93 80 00 	sts	0x0080, r24
    1a28:	08 95       	ret
		
	}
	else{
		TCCR1B &= ~_BV(CS12) & ~_BV(CS10);
    1a2a:	e1 e8       	ldi	r30, 0x81	; 129
    1a2c:	f0 e0       	ldi	r31, 0x00	; 0
    1a2e:	80 81       	ld	r24, Z
    1a30:	8a 7f       	andi	r24, 0xFA	; 250
    1a32:	80 83       	st	Z, r24
		PORTB &= ~_BV(PB1);	
    1a34:	29 98       	cbi	0x05, 1	; 5
		TCCR1A = 0;
    1a36:	10 92 80 00 	sts	0x0080, r1
    1a3a:	08 95       	ret

00001a3c <i2c_init>:
*************************************************************************/
void i2c_init(void)
{
  /* initialize TWI clock: 100 kHz clock, TWPS = 0 => prescaler = 1 */
  
  TWSR = 0;                         /* no prescaler */
    1a3c:	10 92 b9 00 	sts	0x00B9, r1
  TWBR = ((F_CPU/SCL_CLOCK)-16)/2;  /* must be > 10 for stable operation */
    1a40:	88 e4       	ldi	r24, 0x48	; 72
    1a42:	80 93 b8 00 	sts	0x00B8, r24
    1a46:	08 95       	ret

00001a48 <i2c_start>:
unsigned char i2c_start(unsigned char address)
{
    uint8_t   twst;

	// send START condition
	TWCR = (1<<TWINT) | (1<<TWSTA) | (1<<TWEN);
    1a48:	94 ea       	ldi	r25, 0xA4	; 164
    1a4a:	90 93 bc 00 	sts	0x00BC, r25

	// wait until transmission completed
	while(!(TWCR & (1<<TWINT)));
    1a4e:	ec eb       	ldi	r30, 0xBC	; 188
    1a50:	f0 e0       	ldi	r31, 0x00	; 0
    1a52:	90 81       	ld	r25, Z
    1a54:	99 23       	and	r25, r25
    1a56:	ec f7       	brge	.-6      	; 0x1a52 <i2c_start+0xa>

	// check value of TWI Status Register. Mask prescaler bits.
	twst = TW_STATUS & 0xF8;
    1a58:	90 91 b9 00 	lds	r25, 0x00B9
    1a5c:	98 7f       	andi	r25, 0xF8	; 248
	if ( (twst != TW_START) && (twst != TW_REP_START)) return 1;
    1a5e:	98 30       	cpi	r25, 0x08	; 8
    1a60:	11 f0       	breq	.+4      	; 0x1a66 <i2c_start+0x1e>
    1a62:	90 31       	cpi	r25, 0x10	; 16
    1a64:	a1 f4       	brne	.+40     	; 0x1a8e <i2c_start+0x46>

	// send device address
	TWDR = address;
    1a66:	80 93 bb 00 	sts	0x00BB, r24
	TWCR = (1<<TWINT) | (1<<TWEN);
    1a6a:	84 e8       	ldi	r24, 0x84	; 132
    1a6c:	80 93 bc 00 	sts	0x00BC, r24

	// wail until transmission completed and ACK/NACK has been received
	while(!(TWCR & (1<<TWINT)));
    1a70:	ec eb       	ldi	r30, 0xBC	; 188
    1a72:	f0 e0       	ldi	r31, 0x00	; 0
    1a74:	80 81       	ld	r24, Z
    1a76:	88 23       	and	r24, r24
    1a78:	ec f7       	brge	.-6      	; 0x1a74 <i2c_start+0x2c>

	// check value of TWI Status Register. Mask prescaler bits.
	twst = TW_STATUS & 0xF8;
    1a7a:	90 91 b9 00 	lds	r25, 0x00B9
    1a7e:	98 7f       	andi	r25, 0xF8	; 248
	if ( (twst != TW_MT_SLA_ACK) && (twst != TW_MR_SLA_ACK) ) return 1;
    1a80:	98 31       	cpi	r25, 0x18	; 24
    1a82:	39 f0       	breq	.+14     	; 0x1a92 <i2c_start+0x4a>
    1a84:	81 e0       	ldi	r24, 0x01	; 1
    1a86:	90 34       	cpi	r25, 0x40	; 64
    1a88:	29 f4       	brne	.+10     	; 0x1a94 <i2c_start+0x4c>
    1a8a:	80 e0       	ldi	r24, 0x00	; 0
    1a8c:	08 95       	ret
	// wait until transmission completed
	while(!(TWCR & (1<<TWINT)));

	// check value of TWI Status Register. Mask prescaler bits.
	twst = TW_STATUS & 0xF8;
	if ( (twst != TW_START) && (twst != TW_REP_START)) return 1;
    1a8e:	81 e0       	ldi	r24, 0x01	; 1
    1a90:	08 95       	ret

	// check value of TWI Status Register. Mask prescaler bits.
	twst = TW_STATUS & 0xF8;
	if ( (twst != TW_MT_SLA_ACK) && (twst != TW_MR_SLA_ACK) ) return 1;

	return 0;
    1a92:	80 e0       	ldi	r24, 0x00	; 0

}/* i2c_start */
    1a94:	08 95       	ret

00001a96 <i2c_rep_start>:
 Return:  0 device accessible
          1 failed to access device
*************************************************************************/
unsigned char i2c_rep_start(unsigned char address)
{
    return i2c_start( address );
    1a96:	0e 94 24 0d 	call	0x1a48	; 0x1a48 <i2c_start>

}/* i2c_rep_start */
    1a9a:	08 95       	ret

00001a9c <i2c_stop>:
 Terminates the data transfer and releases the I2C bus
*************************************************************************/
void i2c_stop(void)
{
    /* send stop condition */
	TWCR = (1<<TWINT) | (1<<TWEN) | (1<<TWSTO);
    1a9c:	84 e9       	ldi	r24, 0x94	; 148
    1a9e:	80 93 bc 00 	sts	0x00BC, r24
	
	// wait until stop condition is executed and bus released
	while(TWCR & (1<<TWSTO));
    1aa2:	ec eb       	ldi	r30, 0xBC	; 188
    1aa4:	f0 e0       	ldi	r31, 0x00	; 0
    1aa6:	80 81       	ld	r24, Z
    1aa8:	84 fd       	sbrc	r24, 4
    1aaa:	fd cf       	rjmp	.-6      	; 0x1aa6 <i2c_stop+0xa>

}/* i2c_stop */
    1aac:	08 95       	ret

00001aae <i2c_write>:
unsigned char i2c_write( unsigned char data )
{	
    uint8_t   twst;
    
	// send data to the previously addressed device
	TWDR = data;
    1aae:	80 93 bb 00 	sts	0x00BB, r24
	TWCR = (1<<TWINT) | (1<<TWEN);
    1ab2:	84 e8       	ldi	r24, 0x84	; 132
    1ab4:	80 93 bc 00 	sts	0x00BC, r24

	// wait until transmission completed
	while(!(TWCR & (1<<TWINT)));
    1ab8:	ec eb       	ldi	r30, 0xBC	; 188
    1aba:	f0 e0       	ldi	r31, 0x00	; 0
    1abc:	80 81       	ld	r24, Z
    1abe:	88 23       	and	r24, r24
    1ac0:	ec f7       	brge	.-6      	; 0x1abc <i2c_write+0xe>

	// check value of TWI Status Register. Mask prescaler bits
	twst = TW_STATUS & 0xF8;
    1ac2:	90 91 b9 00 	lds	r25, 0x00B9
    1ac6:	98 7f       	andi	r25, 0xF8	; 248
	if( twst != TW_MT_DATA_ACK) return 1;
    1ac8:	81 e0       	ldi	r24, 0x01	; 1
    1aca:	98 32       	cpi	r25, 0x28	; 40
    1acc:	09 f4       	brne	.+2      	; 0x1ad0 <i2c_write+0x22>
    1ace:	80 e0       	ldi	r24, 0x00	; 0
	return 0;

}/* i2c_write */
    1ad0:	08 95       	ret

00001ad2 <i2c_readAck>:
 
 Return:  byte read from I2C device
*************************************************************************/
unsigned char i2c_readAck(void)
{
	TWCR = (1<<TWINT) | (1<<TWEN) | (1<<TWEA);
    1ad2:	84 ec       	ldi	r24, 0xC4	; 196
    1ad4:	80 93 bc 00 	sts	0x00BC, r24
	while(!(TWCR & (1<<TWINT)));    
    1ad8:	ec eb       	ldi	r30, 0xBC	; 188
    1ada:	f0 e0       	ldi	r31, 0x00	; 0
    1adc:	80 81       	ld	r24, Z
    1ade:	88 23       	and	r24, r24
    1ae0:	ec f7       	brge	.-6      	; 0x1adc <i2c_readAck+0xa>

    return TWDR;
    1ae2:	80 91 bb 00 	lds	r24, 0x00BB

}/* i2c_readAck */
    1ae6:	08 95       	ret

00001ae8 <i2c_readNak>:
 
 Return:  byte read from I2C device
*************************************************************************/
unsigned char i2c_readNak(void)
{
	TWCR = (1<<TWINT) | (1<<TWEN);
    1ae8:	84 e8       	ldi	r24, 0x84	; 132
    1aea:	80 93 bc 00 	sts	0x00BC, r24
	while(!(TWCR & (1<<TWINT)));
    1aee:	ec eb       	ldi	r30, 0xBC	; 188
    1af0:	f0 e0       	ldi	r31, 0x00	; 0
    1af2:	80 81       	ld	r24, Z
    1af4:	88 23       	and	r24, r24
    1af6:	ec f7       	brge	.-6      	; 0x1af2 <i2c_readNak+0xa>
	
    return TWDR;
    1af8:	80 91 bb 00 	lds	r24, 0x00BB

}/* i2c_readNak */
    1afc:	08 95       	ret

00001afe <__divmodhi4>:
    1afe:	97 fb       	bst	r25, 7
    1b00:	07 2e       	mov	r0, r23
    1b02:	16 f4       	brtc	.+4      	; 0x1b08 <__divmodhi4+0xa>
    1b04:	00 94       	com	r0
    1b06:	07 d0       	rcall	.+14     	; 0x1b16 <__divmodhi4_neg1>
    1b08:	77 fd       	sbrc	r23, 7
    1b0a:	09 d0       	rcall	.+18     	; 0x1b1e <__divmodhi4_neg2>
    1b0c:	0e 94 93 0d 	call	0x1b26	; 0x1b26 <__udivmodhi4>
    1b10:	07 fc       	sbrc	r0, 7
    1b12:	05 d0       	rcall	.+10     	; 0x1b1e <__divmodhi4_neg2>
    1b14:	3e f4       	brtc	.+14     	; 0x1b24 <__divmodhi4_exit>

00001b16 <__divmodhi4_neg1>:
    1b16:	90 95       	com	r25
    1b18:	81 95       	neg	r24
    1b1a:	9f 4f       	sbci	r25, 0xFF	; 255
    1b1c:	08 95       	ret

00001b1e <__divmodhi4_neg2>:
    1b1e:	70 95       	com	r23
    1b20:	61 95       	neg	r22
    1b22:	7f 4f       	sbci	r23, 0xFF	; 255

00001b24 <__divmodhi4_exit>:
    1b24:	08 95       	ret

00001b26 <__udivmodhi4>:
    1b26:	aa 1b       	sub	r26, r26
    1b28:	bb 1b       	sub	r27, r27
    1b2a:	51 e1       	ldi	r21, 0x11	; 17
    1b2c:	07 c0       	rjmp	.+14     	; 0x1b3c <__udivmodhi4_ep>

00001b2e <__udivmodhi4_loop>:
    1b2e:	aa 1f       	adc	r26, r26
    1b30:	bb 1f       	adc	r27, r27
    1b32:	a6 17       	cp	r26, r22
    1b34:	b7 07       	cpc	r27, r23
    1b36:	10 f0       	brcs	.+4      	; 0x1b3c <__udivmodhi4_ep>
    1b38:	a6 1b       	sub	r26, r22
    1b3a:	b7 0b       	sbc	r27, r23

00001b3c <__udivmodhi4_ep>:
    1b3c:	88 1f       	adc	r24, r24
    1b3e:	99 1f       	adc	r25, r25
    1b40:	5a 95       	dec	r21
    1b42:	a9 f7       	brne	.-22     	; 0x1b2e <__udivmodhi4_loop>
    1b44:	80 95       	com	r24
    1b46:	90 95       	com	r25
    1b48:	bc 01       	movw	r22, r24
    1b4a:	cd 01       	movw	r24, r26
    1b4c:	08 95       	ret

00001b4e <__eerd_byte_m328p>:
    1b4e:	f9 99       	sbic	0x1f, 1	; 31
    1b50:	fe cf       	rjmp	.-4      	; 0x1b4e <__eerd_byte_m328p>
    1b52:	92 bd       	out	0x22, r25	; 34
    1b54:	81 bd       	out	0x21, r24	; 33
    1b56:	f8 9a       	sbi	0x1f, 0	; 31
    1b58:	99 27       	eor	r25, r25
    1b5a:	80 b5       	in	r24, 0x20	; 32
    1b5c:	08 95       	ret

00001b5e <__eeupd_byte_m328p>:
    1b5e:	26 2f       	mov	r18, r22

00001b60 <__eeupd_r18_m328p>:
    1b60:	f9 99       	sbic	0x1f, 1	; 31
    1b62:	fe cf       	rjmp	.-4      	; 0x1b60 <__eeupd_r18_m328p>
    1b64:	92 bd       	out	0x22, r25	; 34
    1b66:	81 bd       	out	0x21, r24	; 33
    1b68:	f8 9a       	sbi	0x1f, 0	; 31
    1b6a:	01 97       	sbiw	r24, 0x01	; 1
    1b6c:	00 b4       	in	r0, 0x20	; 32
    1b6e:	02 16       	cp	r0, r18
    1b70:	39 f0       	breq	.+14     	; 0x1b80 <__eeupd_r18_m328p+0x20>
    1b72:	1f ba       	out	0x1f, r1	; 31
    1b74:	20 bd       	out	0x20, r18	; 32
    1b76:	0f b6       	in	r0, 0x3f	; 63
    1b78:	f8 94       	cli
    1b7a:	fa 9a       	sbi	0x1f, 2	; 31
    1b7c:	f9 9a       	sbi	0x1f, 1	; 31
    1b7e:	0f be       	out	0x3f, r0	; 63
    1b80:	08 95       	ret

00001b82 <_exit>:
    1b82:	f8 94       	cli

00001b84 <__stop_program>:
    1b84:	ff cf       	rjmp	.-2      	; 0x1b84 <__stop_program>
